
F401_Chack_MPU6050.elf:     file format elf32-littlearm

Sections:
Idx Name          Size      VMA       LMA       File off  Algn
  0 .isr_vector   00000194  08000000  08000000  00010000  2**0
                  CONTENTS, ALLOC, LOAD, READONLY, DATA
  1 .text         00002250  08000194  08000194  00010194  2**2
                  CONTENTS, ALLOC, LOAD, READONLY, CODE
  2 .rodata       00000018  080023e4  080023e4  000123e4  2**2
                  CONTENTS, ALLOC, LOAD, READONLY, DATA
  3 .ARM.extab    00000000  080023fc  080023fc  0002000c  2**0
                  CONTENTS
  4 .ARM          00000008  080023fc  080023fc  000123fc  2**2
                  CONTENTS, ALLOC, LOAD, READONLY, DATA
  5 .preinit_array 00000000  08002404  08002404  0002000c  2**0
                  CONTENTS, ALLOC, LOAD, DATA
  6 .init_array   00000004  08002404  08002404  00012404  2**2
                  CONTENTS, ALLOC, LOAD, DATA
  7 .fini_array   00000004  08002408  08002408  00012408  2**2
                  CONTENTS, ALLOC, LOAD, DATA
  8 .data         0000000c  20000000  0800240c  00020000  2**2
                  CONTENTS, ALLOC, LOAD, DATA
  9 .bss          00000078  2000000c  08002418  0002000c  2**2
                  ALLOC
 10 ._user_heap_stack 00000604  20000084  08002418  00020084  2**0
                  ALLOC
 11 .ARM.attributes 00000030  00000000  00000000  0002000c  2**0
                  CONTENTS, READONLY
 12 .debug_info   00007777  00000000  00000000  0002003c  2**0
                  CONTENTS, READONLY, DEBUGGING, OCTETS
 13 .debug_abbrev 00001490  00000000  00000000  000277b3  2**0
                  CONTENTS, READONLY, DEBUGGING, OCTETS
 14 .debug_aranges 000006d8  00000000  00000000  00028c48  2**3
                  CONTENTS, READONLY, DEBUGGING, OCTETS
 15 .debug_ranges 00000648  00000000  00000000  00029320  2**3
                  CONTENTS, READONLY, DEBUGGING, OCTETS
 16 .debug_macro  00014b0b  00000000  00000000  00029968  2**0
                  CONTENTS, READONLY, DEBUGGING, OCTETS
 17 .debug_line   000091e9  00000000  00000000  0003e473  2**0
                  CONTENTS, READONLY, DEBUGGING, OCTETS
 18 .debug_str    00080c5c  00000000  00000000  0004765c  2**0
                  CONTENTS, READONLY, DEBUGGING, OCTETS
 19 .comment      00000053  00000000  00000000  000c82b8  2**0
                  CONTENTS, READONLY
 20 .debug_frame  00001af4  00000000  00000000  000c830c  2**2
                  CONTENTS, READONLY, DEBUGGING, OCTETS

Disassembly of section .text:

08000194 <__do_global_dtors_aux>:
 8000194:	b510      	push	{r4, lr}
 8000196:	4c05      	ldr	r4, [pc, #20]	; (80001ac <__do_global_dtors_aux+0x18>)
 8000198:	7823      	ldrb	r3, [r4, #0]
 800019a:	b933      	cbnz	r3, 80001aa <__do_global_dtors_aux+0x16>
 800019c:	4b04      	ldr	r3, [pc, #16]	; (80001b0 <__do_global_dtors_aux+0x1c>)
 800019e:	b113      	cbz	r3, 80001a6 <__do_global_dtors_aux+0x12>
 80001a0:	4804      	ldr	r0, [pc, #16]	; (80001b4 <__do_global_dtors_aux+0x20>)
 80001a2:	f3af 8000 	nop.w
 80001a6:	2301      	movs	r3, #1
 80001a8:	7023      	strb	r3, [r4, #0]
 80001aa:	bd10      	pop	{r4, pc}
 80001ac:	2000000c 	.word	0x2000000c
 80001b0:	00000000 	.word	0x00000000
 80001b4:	080023cc 	.word	0x080023cc

080001b8 <frame_dummy>:
 80001b8:	b508      	push	{r3, lr}
 80001ba:	4b03      	ldr	r3, [pc, #12]	; (80001c8 <frame_dummy+0x10>)
 80001bc:	b11b      	cbz	r3, 80001c6 <frame_dummy+0xe>
 80001be:	4903      	ldr	r1, [pc, #12]	; (80001cc <frame_dummy+0x14>)
 80001c0:	4803      	ldr	r0, [pc, #12]	; (80001d0 <frame_dummy+0x18>)
 80001c2:	f3af 8000 	nop.w
 80001c6:	bd08      	pop	{r3, pc}
 80001c8:	00000000 	.word	0x00000000
 80001cc:	20000010 	.word	0x20000010
 80001d0:	080023cc 	.word	0x080023cc

080001d4 <__aeabi_uldivmod>:
 80001d4:	b953      	cbnz	r3, 80001ec <__aeabi_uldivmod+0x18>
 80001d6:	b94a      	cbnz	r2, 80001ec <__aeabi_uldivmod+0x18>
 80001d8:	2900      	cmp	r1, #0
 80001da:	bf08      	it	eq
 80001dc:	2800      	cmpeq	r0, #0
 80001de:	bf1c      	itt	ne
 80001e0:	f04f 31ff 	movne.w	r1, #4294967295
 80001e4:	f04f 30ff 	movne.w	r0, #4294967295
 80001e8:	f000 b96e 	b.w	80004c8 <__aeabi_idiv0>
 80001ec:	f1ad 0c08 	sub.w	ip, sp, #8
 80001f0:	e96d ce04 	strd	ip, lr, [sp, #-16]!
 80001f4:	f000 f806 	bl	8000204 <__udivmoddi4>
 80001f8:	f8dd e004 	ldr.w	lr, [sp, #4]
 80001fc:	e9dd 2302 	ldrd	r2, r3, [sp, #8]
 8000200:	b004      	add	sp, #16
 8000202:	4770      	bx	lr

08000204 <__udivmoddi4>:
 8000204:	e92d 47f0 	stmdb	sp!, {r4, r5, r6, r7, r8, r9, sl, lr}
 8000208:	9d08      	ldr	r5, [sp, #32]
 800020a:	4604      	mov	r4, r0
 800020c:	468c      	mov	ip, r1
 800020e:	2b00      	cmp	r3, #0
 8000210:	f040 8083 	bne.w	800031a <__udivmoddi4+0x116>
 8000214:	428a      	cmp	r2, r1
 8000216:	4617      	mov	r7, r2
 8000218:	d947      	bls.n	80002aa <__udivmoddi4+0xa6>
 800021a:	fab2 f282 	clz	r2, r2
 800021e:	b142      	cbz	r2, 8000232 <__udivmoddi4+0x2e>
 8000220:	f1c2 0020 	rsb	r0, r2, #32
 8000224:	fa24 f000 	lsr.w	r0, r4, r0
 8000228:	4091      	lsls	r1, r2
 800022a:	4097      	lsls	r7, r2
 800022c:	ea40 0c01 	orr.w	ip, r0, r1
 8000230:	4094      	lsls	r4, r2
 8000232:	ea4f 4817 	mov.w	r8, r7, lsr #16
 8000236:	0c23      	lsrs	r3, r4, #16
 8000238:	fbbc f6f8 	udiv	r6, ip, r8
 800023c:	fa1f fe87 	uxth.w	lr, r7
 8000240:	fb08 c116 	mls	r1, r8, r6, ip
 8000244:	ea43 4301 	orr.w	r3, r3, r1, lsl #16
 8000248:	fb06 f10e 	mul.w	r1, r6, lr
 800024c:	4299      	cmp	r1, r3
 800024e:	d909      	bls.n	8000264 <__udivmoddi4+0x60>
 8000250:	18fb      	adds	r3, r7, r3
 8000252:	f106 30ff 	add.w	r0, r6, #4294967295
 8000256:	f080 8119 	bcs.w	800048c <__udivmoddi4+0x288>
 800025a:	4299      	cmp	r1, r3
 800025c:	f240 8116 	bls.w	800048c <__udivmoddi4+0x288>
 8000260:	3e02      	subs	r6, #2
 8000262:	443b      	add	r3, r7
 8000264:	1a5b      	subs	r3, r3, r1
 8000266:	b2a4      	uxth	r4, r4
 8000268:	fbb3 f0f8 	udiv	r0, r3, r8
 800026c:	fb08 3310 	mls	r3, r8, r0, r3
 8000270:	ea44 4403 	orr.w	r4, r4, r3, lsl #16
 8000274:	fb00 fe0e 	mul.w	lr, r0, lr
 8000278:	45a6      	cmp	lr, r4
 800027a:	d909      	bls.n	8000290 <__udivmoddi4+0x8c>
 800027c:	193c      	adds	r4, r7, r4
 800027e:	f100 33ff 	add.w	r3, r0, #4294967295
 8000282:	f080 8105 	bcs.w	8000490 <__udivmoddi4+0x28c>
 8000286:	45a6      	cmp	lr, r4
 8000288:	f240 8102 	bls.w	8000490 <__udivmoddi4+0x28c>
 800028c:	3802      	subs	r0, #2
 800028e:	443c      	add	r4, r7
 8000290:	ea40 4006 	orr.w	r0, r0, r6, lsl #16
 8000294:	eba4 040e 	sub.w	r4, r4, lr
 8000298:	2600      	movs	r6, #0
 800029a:	b11d      	cbz	r5, 80002a4 <__udivmoddi4+0xa0>
 800029c:	40d4      	lsrs	r4, r2
 800029e:	2300      	movs	r3, #0
 80002a0:	e9c5 4300 	strd	r4, r3, [r5]
 80002a4:	4631      	mov	r1, r6
 80002a6:	e8bd 87f0 	ldmia.w	sp!, {r4, r5, r6, r7, r8, r9, sl, pc}
 80002aa:	b902      	cbnz	r2, 80002ae <__udivmoddi4+0xaa>
 80002ac:	deff      	udf	#255	; 0xff
 80002ae:	fab2 f282 	clz	r2, r2
 80002b2:	2a00      	cmp	r2, #0
 80002b4:	d150      	bne.n	8000358 <__udivmoddi4+0x154>
 80002b6:	1bcb      	subs	r3, r1, r7
 80002b8:	ea4f 4e17 	mov.w	lr, r7, lsr #16
 80002bc:	fa1f f887 	uxth.w	r8, r7
 80002c0:	2601      	movs	r6, #1
 80002c2:	fbb3 fcfe 	udiv	ip, r3, lr
 80002c6:	0c21      	lsrs	r1, r4, #16
 80002c8:	fb0e 331c 	mls	r3, lr, ip, r3
 80002cc:	ea41 4103 	orr.w	r1, r1, r3, lsl #16
 80002d0:	fb08 f30c 	mul.w	r3, r8, ip
 80002d4:	428b      	cmp	r3, r1
 80002d6:	d907      	bls.n	80002e8 <__udivmoddi4+0xe4>
 80002d8:	1879      	adds	r1, r7, r1
 80002da:	f10c 30ff 	add.w	r0, ip, #4294967295
 80002de:	d202      	bcs.n	80002e6 <__udivmoddi4+0xe2>
 80002e0:	428b      	cmp	r3, r1
 80002e2:	f200 80e9 	bhi.w	80004b8 <__udivmoddi4+0x2b4>
 80002e6:	4684      	mov	ip, r0
 80002e8:	1ac9      	subs	r1, r1, r3
 80002ea:	b2a3      	uxth	r3, r4
 80002ec:	fbb1 f0fe 	udiv	r0, r1, lr
 80002f0:	fb0e 1110 	mls	r1, lr, r0, r1
 80002f4:	ea43 4401 	orr.w	r4, r3, r1, lsl #16
 80002f8:	fb08 f800 	mul.w	r8, r8, r0
 80002fc:	45a0      	cmp	r8, r4
 80002fe:	d907      	bls.n	8000310 <__udivmoddi4+0x10c>
 8000300:	193c      	adds	r4, r7, r4
 8000302:	f100 33ff 	add.w	r3, r0, #4294967295
 8000306:	d202      	bcs.n	800030e <__udivmoddi4+0x10a>
 8000308:	45a0      	cmp	r8, r4
 800030a:	f200 80d9 	bhi.w	80004c0 <__udivmoddi4+0x2bc>
 800030e:	4618      	mov	r0, r3
 8000310:	eba4 0408 	sub.w	r4, r4, r8
 8000314:	ea40 400c 	orr.w	r0, r0, ip, lsl #16
 8000318:	e7bf      	b.n	800029a <__udivmoddi4+0x96>
 800031a:	428b      	cmp	r3, r1
 800031c:	d909      	bls.n	8000332 <__udivmoddi4+0x12e>
 800031e:	2d00      	cmp	r5, #0
 8000320:	f000 80b1 	beq.w	8000486 <__udivmoddi4+0x282>
 8000324:	2600      	movs	r6, #0
 8000326:	e9c5 0100 	strd	r0, r1, [r5]
 800032a:	4630      	mov	r0, r6
 800032c:	4631      	mov	r1, r6
 800032e:	e8bd 87f0 	ldmia.w	sp!, {r4, r5, r6, r7, r8, r9, sl, pc}
 8000332:	fab3 f683 	clz	r6, r3
 8000336:	2e00      	cmp	r6, #0
 8000338:	d14a      	bne.n	80003d0 <__udivmoddi4+0x1cc>
 800033a:	428b      	cmp	r3, r1
 800033c:	d302      	bcc.n	8000344 <__udivmoddi4+0x140>
 800033e:	4282      	cmp	r2, r0
 8000340:	f200 80b8 	bhi.w	80004b4 <__udivmoddi4+0x2b0>
 8000344:	1a84      	subs	r4, r0, r2
 8000346:	eb61 0103 	sbc.w	r1, r1, r3
 800034a:	2001      	movs	r0, #1
 800034c:	468c      	mov	ip, r1
 800034e:	2d00      	cmp	r5, #0
 8000350:	d0a8      	beq.n	80002a4 <__udivmoddi4+0xa0>
 8000352:	e9c5 4c00 	strd	r4, ip, [r5]
 8000356:	e7a5      	b.n	80002a4 <__udivmoddi4+0xa0>
 8000358:	f1c2 0320 	rsb	r3, r2, #32
 800035c:	fa20 f603 	lsr.w	r6, r0, r3
 8000360:	4097      	lsls	r7, r2
 8000362:	fa01 f002 	lsl.w	r0, r1, r2
 8000366:	ea4f 4e17 	mov.w	lr, r7, lsr #16
 800036a:	40d9      	lsrs	r1, r3
 800036c:	4330      	orrs	r0, r6
 800036e:	0c03      	lsrs	r3, r0, #16
 8000370:	fbb1 f6fe 	udiv	r6, r1, lr
 8000374:	fa1f f887 	uxth.w	r8, r7
 8000378:	fb0e 1116 	mls	r1, lr, r6, r1
 800037c:	ea43 4301 	orr.w	r3, r3, r1, lsl #16
 8000380:	fb06 f108 	mul.w	r1, r6, r8
 8000384:	4299      	cmp	r1, r3
 8000386:	fa04 f402 	lsl.w	r4, r4, r2
 800038a:	d909      	bls.n	80003a0 <__udivmoddi4+0x19c>
 800038c:	18fb      	adds	r3, r7, r3
 800038e:	f106 3cff 	add.w	ip, r6, #4294967295
 8000392:	f080 808d 	bcs.w	80004b0 <__udivmoddi4+0x2ac>
 8000396:	4299      	cmp	r1, r3
 8000398:	f240 808a 	bls.w	80004b0 <__udivmoddi4+0x2ac>
 800039c:	3e02      	subs	r6, #2
 800039e:	443b      	add	r3, r7
 80003a0:	1a5b      	subs	r3, r3, r1
 80003a2:	b281      	uxth	r1, r0
 80003a4:	fbb3 f0fe 	udiv	r0, r3, lr
 80003a8:	fb0e 3310 	mls	r3, lr, r0, r3
 80003ac:	ea41 4103 	orr.w	r1, r1, r3, lsl #16
 80003b0:	fb00 f308 	mul.w	r3, r0, r8
 80003b4:	428b      	cmp	r3, r1
 80003b6:	d907      	bls.n	80003c8 <__udivmoddi4+0x1c4>
 80003b8:	1879      	adds	r1, r7, r1
 80003ba:	f100 3cff 	add.w	ip, r0, #4294967295
 80003be:	d273      	bcs.n	80004a8 <__udivmoddi4+0x2a4>
 80003c0:	428b      	cmp	r3, r1
 80003c2:	d971      	bls.n	80004a8 <__udivmoddi4+0x2a4>
 80003c4:	3802      	subs	r0, #2
 80003c6:	4439      	add	r1, r7
 80003c8:	1acb      	subs	r3, r1, r3
 80003ca:	ea40 4606 	orr.w	r6, r0, r6, lsl #16
 80003ce:	e778      	b.n	80002c2 <__udivmoddi4+0xbe>
 80003d0:	f1c6 0c20 	rsb	ip, r6, #32
 80003d4:	fa03 f406 	lsl.w	r4, r3, r6
 80003d8:	fa22 f30c 	lsr.w	r3, r2, ip
 80003dc:	431c      	orrs	r4, r3
 80003de:	fa20 f70c 	lsr.w	r7, r0, ip
 80003e2:	fa01 f306 	lsl.w	r3, r1, r6
 80003e6:	ea4f 4e14 	mov.w	lr, r4, lsr #16
 80003ea:	fa21 f10c 	lsr.w	r1, r1, ip
 80003ee:	431f      	orrs	r7, r3
 80003f0:	0c3b      	lsrs	r3, r7, #16
 80003f2:	fbb1 f9fe 	udiv	r9, r1, lr
 80003f6:	fa1f f884 	uxth.w	r8, r4
 80003fa:	fb0e 1119 	mls	r1, lr, r9, r1
 80003fe:	ea43 4101 	orr.w	r1, r3, r1, lsl #16
 8000402:	fb09 fa08 	mul.w	sl, r9, r8
 8000406:	458a      	cmp	sl, r1
 8000408:	fa02 f206 	lsl.w	r2, r2, r6
 800040c:	fa00 f306 	lsl.w	r3, r0, r6
 8000410:	d908      	bls.n	8000424 <__udivmoddi4+0x220>
 8000412:	1861      	adds	r1, r4, r1
 8000414:	f109 30ff 	add.w	r0, r9, #4294967295
 8000418:	d248      	bcs.n	80004ac <__udivmoddi4+0x2a8>
 800041a:	458a      	cmp	sl, r1
 800041c:	d946      	bls.n	80004ac <__udivmoddi4+0x2a8>
 800041e:	f1a9 0902 	sub.w	r9, r9, #2
 8000422:	4421      	add	r1, r4
 8000424:	eba1 010a 	sub.w	r1, r1, sl
 8000428:	b2bf      	uxth	r7, r7
 800042a:	fbb1 f0fe 	udiv	r0, r1, lr
 800042e:	fb0e 1110 	mls	r1, lr, r0, r1
 8000432:	ea47 4701 	orr.w	r7, r7, r1, lsl #16
 8000436:	fb00 f808 	mul.w	r8, r0, r8
 800043a:	45b8      	cmp	r8, r7
 800043c:	d907      	bls.n	800044e <__udivmoddi4+0x24a>
 800043e:	19e7      	adds	r7, r4, r7
 8000440:	f100 31ff 	add.w	r1, r0, #4294967295
 8000444:	d22e      	bcs.n	80004a4 <__udivmoddi4+0x2a0>
 8000446:	45b8      	cmp	r8, r7
 8000448:	d92c      	bls.n	80004a4 <__udivmoddi4+0x2a0>
 800044a:	3802      	subs	r0, #2
 800044c:	4427      	add	r7, r4
 800044e:	ea40 4009 	orr.w	r0, r0, r9, lsl #16
 8000452:	eba7 0708 	sub.w	r7, r7, r8
 8000456:	fba0 8902 	umull	r8, r9, r0, r2
 800045a:	454f      	cmp	r7, r9
 800045c:	46c6      	mov	lr, r8
 800045e:	4649      	mov	r1, r9
 8000460:	d31a      	bcc.n	8000498 <__udivmoddi4+0x294>
 8000462:	d017      	beq.n	8000494 <__udivmoddi4+0x290>
 8000464:	b15d      	cbz	r5, 800047e <__udivmoddi4+0x27a>
 8000466:	ebb3 020e 	subs.w	r2, r3, lr
 800046a:	eb67 0701 	sbc.w	r7, r7, r1
 800046e:	fa07 fc0c 	lsl.w	ip, r7, ip
 8000472:	40f2      	lsrs	r2, r6
 8000474:	ea4c 0202 	orr.w	r2, ip, r2
 8000478:	40f7      	lsrs	r7, r6
 800047a:	e9c5 2700 	strd	r2, r7, [r5]
 800047e:	2600      	movs	r6, #0
 8000480:	4631      	mov	r1, r6
 8000482:	e8bd 87f0 	ldmia.w	sp!, {r4, r5, r6, r7, r8, r9, sl, pc}
 8000486:	462e      	mov	r6, r5
 8000488:	4628      	mov	r0, r5
 800048a:	e70b      	b.n	80002a4 <__udivmoddi4+0xa0>
 800048c:	4606      	mov	r6, r0
 800048e:	e6e9      	b.n	8000264 <__udivmoddi4+0x60>
 8000490:	4618      	mov	r0, r3
 8000492:	e6fd      	b.n	8000290 <__udivmoddi4+0x8c>
 8000494:	4543      	cmp	r3, r8
 8000496:	d2e5      	bcs.n	8000464 <__udivmoddi4+0x260>
 8000498:	ebb8 0e02 	subs.w	lr, r8, r2
 800049c:	eb69 0104 	sbc.w	r1, r9, r4
 80004a0:	3801      	subs	r0, #1
 80004a2:	e7df      	b.n	8000464 <__udivmoddi4+0x260>
 80004a4:	4608      	mov	r0, r1
 80004a6:	e7d2      	b.n	800044e <__udivmoddi4+0x24a>
 80004a8:	4660      	mov	r0, ip
 80004aa:	e78d      	b.n	80003c8 <__udivmoddi4+0x1c4>
 80004ac:	4681      	mov	r9, r0
 80004ae:	e7b9      	b.n	8000424 <__udivmoddi4+0x220>
 80004b0:	4666      	mov	r6, ip
 80004b2:	e775      	b.n	80003a0 <__udivmoddi4+0x19c>
 80004b4:	4630      	mov	r0, r6
 80004b6:	e74a      	b.n	800034e <__udivmoddi4+0x14a>
 80004b8:	f1ac 0c02 	sub.w	ip, ip, #2
 80004bc:	4439      	add	r1, r7
 80004be:	e713      	b.n	80002e8 <__udivmoddi4+0xe4>
 80004c0:	3802      	subs	r0, #2
 80004c2:	443c      	add	r4, r7
 80004c4:	e724      	b.n	8000310 <__udivmoddi4+0x10c>
 80004c6:	bf00      	nop

080004c8 <__aeabi_idiv0>:
 80004c8:	4770      	bx	lr
 80004ca:	bf00      	nop

080004cc <MX_GPIO_Init>:
        * Output
        * EVENT_OUT
        * EXTI
*/
void MX_GPIO_Init(void)
{
 80004cc:	b580      	push	{r7, lr}
 80004ce:	b08a      	sub	sp, #40	; 0x28
 80004d0:	af00      	add	r7, sp, #0

  GPIO_InitTypeDef GPIO_InitStruct = {0};
 80004d2:	f107 0314 	add.w	r3, r7, #20
 80004d6:	2200      	movs	r2, #0
 80004d8:	601a      	str	r2, [r3, #0]
 80004da:	605a      	str	r2, [r3, #4]
 80004dc:	609a      	str	r2, [r3, #8]
 80004de:	60da      	str	r2, [r3, #12]
 80004e0:	611a      	str	r2, [r3, #16]

  /* GPIO Ports Clock Enable */
  __HAL_RCC_GPIOC_CLK_ENABLE();
 80004e2:	2300      	movs	r3, #0
 80004e4:	613b      	str	r3, [r7, #16]
 80004e6:	4b27      	ldr	r3, [pc, #156]	; (8000584 <MX_GPIO_Init+0xb8>)
 80004e8:	6b1b      	ldr	r3, [r3, #48]	; 0x30
 80004ea:	4a26      	ldr	r2, [pc, #152]	; (8000584 <MX_GPIO_Init+0xb8>)
 80004ec:	f043 0304 	orr.w	r3, r3, #4
 80004f0:	6313      	str	r3, [r2, #48]	; 0x30
 80004f2:	4b24      	ldr	r3, [pc, #144]	; (8000584 <MX_GPIO_Init+0xb8>)
 80004f4:	6b1b      	ldr	r3, [r3, #48]	; 0x30
 80004f6:	f003 0304 	and.w	r3, r3, #4
 80004fa:	613b      	str	r3, [r7, #16]
 80004fc:	693b      	ldr	r3, [r7, #16]
  __HAL_RCC_GPIOH_CLK_ENABLE();
 80004fe:	2300      	movs	r3, #0
 8000500:	60fb      	str	r3, [r7, #12]
 8000502:	4b20      	ldr	r3, [pc, #128]	; (8000584 <MX_GPIO_Init+0xb8>)
 8000504:	6b1b      	ldr	r3, [r3, #48]	; 0x30
 8000506:	4a1f      	ldr	r2, [pc, #124]	; (8000584 <MX_GPIO_Init+0xb8>)
 8000508:	f043 0380 	orr.w	r3, r3, #128	; 0x80
 800050c:	6313      	str	r3, [r2, #48]	; 0x30
 800050e:	4b1d      	ldr	r3, [pc, #116]	; (8000584 <MX_GPIO_Init+0xb8>)
 8000510:	6b1b      	ldr	r3, [r3, #48]	; 0x30
 8000512:	f003 0380 	and.w	r3, r3, #128	; 0x80
 8000516:	60fb      	str	r3, [r7, #12]
 8000518:	68fb      	ldr	r3, [r7, #12]
  __HAL_RCC_GPIOA_CLK_ENABLE();
 800051a:	2300      	movs	r3, #0
 800051c:	60bb      	str	r3, [r7, #8]
 800051e:	4b19      	ldr	r3, [pc, #100]	; (8000584 <MX_GPIO_Init+0xb8>)
 8000520:	6b1b      	ldr	r3, [r3, #48]	; 0x30
 8000522:	4a18      	ldr	r2, [pc, #96]	; (8000584 <MX_GPIO_Init+0xb8>)
 8000524:	f043 0301 	orr.w	r3, r3, #1
 8000528:	6313      	str	r3, [r2, #48]	; 0x30
 800052a:	4b16      	ldr	r3, [pc, #88]	; (8000584 <MX_GPIO_Init+0xb8>)
 800052c:	6b1b      	ldr	r3, [r3, #48]	; 0x30
 800052e:	f003 0301 	and.w	r3, r3, #1
 8000532:	60bb      	str	r3, [r7, #8]
 8000534:	68bb      	ldr	r3, [r7, #8]
  __HAL_RCC_GPIOB_CLK_ENABLE();
 8000536:	2300      	movs	r3, #0
 8000538:	607b      	str	r3, [r7, #4]
 800053a:	4b12      	ldr	r3, [pc, #72]	; (8000584 <MX_GPIO_Init+0xb8>)
 800053c:	6b1b      	ldr	r3, [r3, #48]	; 0x30
 800053e:	4a11      	ldr	r2, [pc, #68]	; (8000584 <MX_GPIO_Init+0xb8>)
 8000540:	f043 0302 	orr.w	r3, r3, #2
 8000544:	6313      	str	r3, [r2, #48]	; 0x30
 8000546:	4b0f      	ldr	r3, [pc, #60]	; (8000584 <MX_GPIO_Init+0xb8>)
 8000548:	6b1b      	ldr	r3, [r3, #48]	; 0x30
 800054a:	f003 0302 	and.w	r3, r3, #2
 800054e:	607b      	str	r3, [r7, #4]
 8000550:	687b      	ldr	r3, [r7, #4]

  /*Configure GPIO pin Output Level */
  HAL_GPIO_WritePin(GPIOC, GPIO_PIN_13, GPIO_PIN_RESET);
 8000552:	2200      	movs	r2, #0
 8000554:	f44f 5100 	mov.w	r1, #8192	; 0x2000
 8000558:	480b      	ldr	r0, [pc, #44]	; (8000588 <MX_GPIO_Init+0xbc>)
 800055a:	f000 fcb5 	bl	8000ec8 <HAL_GPIO_WritePin>

  /*Configure GPIO pin : PC13 */
  GPIO_InitStruct.Pin = GPIO_PIN_13;
 800055e:	f44f 5300 	mov.w	r3, #8192	; 0x2000
 8000562:	617b      	str	r3, [r7, #20]
  GPIO_InitStruct.Mode = GPIO_MODE_OUTPUT_PP;
 8000564:	2301      	movs	r3, #1
 8000566:	61bb      	str	r3, [r7, #24]
  GPIO_InitStruct.Pull = GPIO_NOPULL;
 8000568:	2300      	movs	r3, #0
 800056a:	61fb      	str	r3, [r7, #28]
  GPIO_InitStruct.Speed = GPIO_SPEED_FREQ_LOW;
 800056c:	2300      	movs	r3, #0
 800056e:	623b      	str	r3, [r7, #32]
  HAL_GPIO_Init(GPIOC, &GPIO_InitStruct);
 8000570:	f107 0314 	add.w	r3, r7, #20
 8000574:	4619      	mov	r1, r3
 8000576:	4804      	ldr	r0, [pc, #16]	; (8000588 <MX_GPIO_Init+0xbc>)
 8000578:	f000 fb22 	bl	8000bc0 <HAL_GPIO_Init>

}
 800057c:	bf00      	nop
 800057e:	3728      	adds	r7, #40	; 0x28
 8000580:	46bd      	mov	sp, r7
 8000582:	bd80      	pop	{r7, pc}
 8000584:	40023800 	.word	0x40023800
 8000588:	40020800 	.word	0x40020800

0800058c <MX_I2C1_Init>:

I2C_HandleTypeDef hi2c1;

/* I2C1 init function */
void MX_I2C1_Init(void)
{
 800058c:	b580      	push	{r7, lr}
 800058e:	af00      	add	r7, sp, #0
  /* USER CODE END I2C1_Init 0 */

  /* USER CODE BEGIN I2C1_Init 1 */

  /* USER CODE END I2C1_Init 1 */
  hi2c1.Instance = I2C1;
 8000590:	4b12      	ldr	r3, [pc, #72]	; (80005dc <MX_I2C1_Init+0x50>)
 8000592:	4a13      	ldr	r2, [pc, #76]	; (80005e0 <MX_I2C1_Init+0x54>)
 8000594:	601a      	str	r2, [r3, #0]
  hi2c1.Init.ClockSpeed = 400000;
 8000596:	4b11      	ldr	r3, [pc, #68]	; (80005dc <MX_I2C1_Init+0x50>)
 8000598:	4a12      	ldr	r2, [pc, #72]	; (80005e4 <MX_I2C1_Init+0x58>)
 800059a:	605a      	str	r2, [r3, #4]
  hi2c1.Init.DutyCycle = I2C_DUTYCYCLE_2;
 800059c:	4b0f      	ldr	r3, [pc, #60]	; (80005dc <MX_I2C1_Init+0x50>)
 800059e:	2200      	movs	r2, #0
 80005a0:	609a      	str	r2, [r3, #8]
  hi2c1.Init.OwnAddress1 = 0;
 80005a2:	4b0e      	ldr	r3, [pc, #56]	; (80005dc <MX_I2C1_Init+0x50>)
 80005a4:	2200      	movs	r2, #0
 80005a6:	60da      	str	r2, [r3, #12]
  hi2c1.Init.AddressingMode = I2C_ADDRESSINGMODE_7BIT;
 80005a8:	4b0c      	ldr	r3, [pc, #48]	; (80005dc <MX_I2C1_Init+0x50>)
 80005aa:	f44f 4280 	mov.w	r2, #16384	; 0x4000
 80005ae:	611a      	str	r2, [r3, #16]
  hi2c1.Init.DualAddressMode = I2C_DUALADDRESS_DISABLE;
 80005b0:	4b0a      	ldr	r3, [pc, #40]	; (80005dc <MX_I2C1_Init+0x50>)
 80005b2:	2200      	movs	r2, #0
 80005b4:	615a      	str	r2, [r3, #20]
  hi2c1.Init.OwnAddress2 = 0;
 80005b6:	4b09      	ldr	r3, [pc, #36]	; (80005dc <MX_I2C1_Init+0x50>)
 80005b8:	2200      	movs	r2, #0
 80005ba:	619a      	str	r2, [r3, #24]
  hi2c1.Init.GeneralCallMode = I2C_GENERALCALL_DISABLE;
 80005bc:	4b07      	ldr	r3, [pc, #28]	; (80005dc <MX_I2C1_Init+0x50>)
 80005be:	2200      	movs	r2, #0
 80005c0:	61da      	str	r2, [r3, #28]
  hi2c1.Init.NoStretchMode = I2C_NOSTRETCH_DISABLE;
 80005c2:	4b06      	ldr	r3, [pc, #24]	; (80005dc <MX_I2C1_Init+0x50>)
 80005c4:	2200      	movs	r2, #0
 80005c6:	621a      	str	r2, [r3, #32]
  if (HAL_I2C_Init(&hi2c1) != HAL_OK)
 80005c8:	4804      	ldr	r0, [pc, #16]	; (80005dc <MX_I2C1_Init+0x50>)
 80005ca:	f000 fcb1 	bl	8000f30 <HAL_I2C_Init>
 80005ce:	4603      	mov	r3, r0
 80005d0:	2b00      	cmp	r3, #0
 80005d2:	d001      	beq.n	80005d8 <MX_I2C1_Init+0x4c>
  {
    Error_Handler();
 80005d4:	f000 f8e4 	bl	80007a0 <Error_Handler>
  }
  /* USER CODE BEGIN I2C1_Init 2 */

  /* USER CODE END I2C1_Init 2 */

}
 80005d8:	bf00      	nop
 80005da:	bd80      	pop	{r7, pc}
 80005dc:	20000028 	.word	0x20000028
 80005e0:	40005400 	.word	0x40005400
 80005e4:	00061a80 	.word	0x00061a80

080005e8 <HAL_I2C_MspInit>:

void HAL_I2C_MspInit(I2C_HandleTypeDef* i2cHandle)
{
 80005e8:	b580      	push	{r7, lr}
 80005ea:	b08a      	sub	sp, #40	; 0x28
 80005ec:	af00      	add	r7, sp, #0
 80005ee:	6078      	str	r0, [r7, #4]

  GPIO_InitTypeDef GPIO_InitStruct = {0};
 80005f0:	f107 0314 	add.w	r3, r7, #20
 80005f4:	2200      	movs	r2, #0
 80005f6:	601a      	str	r2, [r3, #0]
 80005f8:	605a      	str	r2, [r3, #4]
 80005fa:	609a      	str	r2, [r3, #8]
 80005fc:	60da      	str	r2, [r3, #12]
 80005fe:	611a      	str	r2, [r3, #16]
  if(i2cHandle->Instance==I2C1)
 8000600:	687b      	ldr	r3, [r7, #4]
 8000602:	681b      	ldr	r3, [r3, #0]
 8000604:	4a19      	ldr	r2, [pc, #100]	; (800066c <HAL_I2C_MspInit+0x84>)
 8000606:	4293      	cmp	r3, r2
 8000608:	d12b      	bne.n	8000662 <HAL_I2C_MspInit+0x7a>
  {
  /* USER CODE BEGIN I2C1_MspInit 0 */

  /* USER CODE END I2C1_MspInit 0 */

    __HAL_RCC_GPIOB_CLK_ENABLE();
 800060a:	2300      	movs	r3, #0
 800060c:	613b      	str	r3, [r7, #16]
 800060e:	4b18      	ldr	r3, [pc, #96]	; (8000670 <HAL_I2C_MspInit+0x88>)
 8000610:	6b1b      	ldr	r3, [r3, #48]	; 0x30
 8000612:	4a17      	ldr	r2, [pc, #92]	; (8000670 <HAL_I2C_MspInit+0x88>)
 8000614:	f043 0302 	orr.w	r3, r3, #2
 8000618:	6313      	str	r3, [r2, #48]	; 0x30
 800061a:	4b15      	ldr	r3, [pc, #84]	; (8000670 <HAL_I2C_MspInit+0x88>)
 800061c:	6b1b      	ldr	r3, [r3, #48]	; 0x30
 800061e:	f003 0302 	and.w	r3, r3, #2
 8000622:	613b      	str	r3, [r7, #16]
 8000624:	693b      	ldr	r3, [r7, #16]
    /**I2C1 GPIO Configuration
    PB6     ------> I2C1_SCL
    PB7     ------> I2C1_SDA
    */
    GPIO_InitStruct.Pin = GPIO_PIN_6|GPIO_PIN_7;
 8000626:	23c0      	movs	r3, #192	; 0xc0
 8000628:	617b      	str	r3, [r7, #20]
    GPIO_InitStruct.Mode = GPIO_MODE_AF_OD;
 800062a:	2312      	movs	r3, #18
 800062c:	61bb      	str	r3, [r7, #24]
    GPIO_InitStruct.Pull = GPIO_PULLUP;
 800062e:	2301      	movs	r3, #1
 8000630:	61fb      	str	r3, [r7, #28]
    GPIO_InitStruct.Speed = GPIO_SPEED_FREQ_VERY_HIGH;
 8000632:	2303      	movs	r3, #3
 8000634:	623b      	str	r3, [r7, #32]
    GPIO_InitStruct.Alternate = GPIO_AF4_I2C1;
 8000636:	2304      	movs	r3, #4
 8000638:	627b      	str	r3, [r7, #36]	; 0x24
    HAL_GPIO_Init(GPIOB, &GPIO_InitStruct);
 800063a:	f107 0314 	add.w	r3, r7, #20
 800063e:	4619      	mov	r1, r3
 8000640:	480c      	ldr	r0, [pc, #48]	; (8000674 <HAL_I2C_MspInit+0x8c>)
 8000642:	f000 fabd 	bl	8000bc0 <HAL_GPIO_Init>

    /* I2C1 clock enable */
    __HAL_RCC_I2C1_CLK_ENABLE();
 8000646:	2300      	movs	r3, #0
 8000648:	60fb      	str	r3, [r7, #12]
 800064a:	4b09      	ldr	r3, [pc, #36]	; (8000670 <HAL_I2C_MspInit+0x88>)
 800064c:	6c1b      	ldr	r3, [r3, #64]	; 0x40
 800064e:	4a08      	ldr	r2, [pc, #32]	; (8000670 <HAL_I2C_MspInit+0x88>)
 8000650:	f443 1300 	orr.w	r3, r3, #2097152	; 0x200000
 8000654:	6413      	str	r3, [r2, #64]	; 0x40
 8000656:	4b06      	ldr	r3, [pc, #24]	; (8000670 <HAL_I2C_MspInit+0x88>)
 8000658:	6c1b      	ldr	r3, [r3, #64]	; 0x40
 800065a:	f403 1300 	and.w	r3, r3, #2097152	; 0x200000
 800065e:	60fb      	str	r3, [r7, #12]
 8000660:	68fb      	ldr	r3, [r7, #12]
  /* USER CODE BEGIN I2C1_MspInit 1 */

  /* USER CODE END I2C1_MspInit 1 */
  }
}
 8000662:	bf00      	nop
 8000664:	3728      	adds	r7, #40	; 0x28
 8000666:	46bd      	mov	sp, r7
 8000668:	bd80      	pop	{r7, pc}
 800066a:	bf00      	nop
 800066c:	40005400 	.word	0x40005400
 8000670:	40023800 	.word	0x40023800
 8000674:	40020400 	.word	0x40020400

08000678 <main>:
/**
  * @brief  The application entry point.
  * @retval int
  */
int main(void)
{
 8000678:	b580      	push	{r7, lr}
 800067a:	b084      	sub	sp, #16
 800067c:	af04      	add	r7, sp, #16
  /* USER CODE END 1 */

  /* MCU Configuration--------------------------------------------------------*/

  /* Reset of all peripherals, Initializes the Flash interface and the Systick. */
  HAL_Init();
 800067e:	f000 f923 	bl	80008c8 <HAL_Init>
  /* USER CODE BEGIN Init */

  /* USER CODE END Init */

  /* Configure the system clock */
  SystemClock_Config();
 8000682:	f000 f823 	bl	80006cc <SystemClock_Config>
  /* USER CODE BEGIN SysInit */

  /* USER CODE END SysInit */

  /* Initialize all configured peripherals */
  MX_GPIO_Init();
 8000686:	f7ff ff21 	bl	80004cc <MX_GPIO_Init>
  MX_I2C1_Init();
 800068a:	f7ff ff7f 	bl	800058c <MX_I2C1_Init>
  /* USER CODE BEGIN 2 */

  	  /* DATA CHECK MUP6050 */

		  HAL_I2C_Mem_Read(&hi2c1, 0xD0, 0x75, 1, &check, 1, 100);
 800068e:	2364      	movs	r3, #100	; 0x64
 8000690:	9302      	str	r3, [sp, #8]
 8000692:	2301      	movs	r3, #1
 8000694:	9301      	str	r3, [sp, #4]
 8000696:	4b0a      	ldr	r3, [pc, #40]	; (80006c0 <main+0x48>)
 8000698:	9300      	str	r3, [sp, #0]
 800069a:	2301      	movs	r3, #1
 800069c:	2275      	movs	r2, #117	; 0x75
 800069e:	21d0      	movs	r1, #208	; 0xd0
 80006a0:	4808      	ldr	r0, [pc, #32]	; (80006c4 <main+0x4c>)
 80006a2:	f000 fd89 	bl	80011b8 <HAL_I2C_Mem_Read>
		  HAL_Delay(100);
 80006a6:	2064      	movs	r0, #100	; 0x64
 80006a8:	f000 f980 	bl	80009ac <HAL_Delay>

    /* USER CODE BEGIN 3 */

	    /* TOGGLE PIN LED AFTER MPU CHECK */

		  HAL_GPIO_TogglePin(GPIOC, GPIO_PIN_13);
 80006ac:	f44f 5100 	mov.w	r1, #8192	; 0x2000
 80006b0:	4805      	ldr	r0, [pc, #20]	; (80006c8 <main+0x50>)
 80006b2:	f000 fc22 	bl	8000efa <HAL_GPIO_TogglePin>
		  HAL_Delay(100);
 80006b6:	2064      	movs	r0, #100	; 0x64
 80006b8:	f000 f978 	bl	80009ac <HAL_Delay>
		  HAL_GPIO_TogglePin(GPIOC, GPIO_PIN_13);
 80006bc:	e7f6      	b.n	80006ac <main+0x34>
 80006be:	bf00      	nop
 80006c0:	2000007c 	.word	0x2000007c
 80006c4:	20000028 	.word	0x20000028
 80006c8:	40020800 	.word	0x40020800

080006cc <SystemClock_Config>:
/**
  * @brief System Clock Configuration
  * @retval None
  */
void SystemClock_Config(void)
{
 80006cc:	b580      	push	{r7, lr}
 80006ce:	b094      	sub	sp, #80	; 0x50
 80006d0:	af00      	add	r7, sp, #0
  RCC_OscInitTypeDef RCC_OscInitStruct = {0};
 80006d2:	f107 0320 	add.w	r3, r7, #32
 80006d6:	2230      	movs	r2, #48	; 0x30
 80006d8:	2100      	movs	r1, #0
 80006da:	4618      	mov	r0, r3
 80006dc:	f001 fe6e 	bl	80023bc <memset>
  RCC_ClkInitTypeDef RCC_ClkInitStruct = {0};
 80006e0:	f107 030c 	add.w	r3, r7, #12
 80006e4:	2200      	movs	r2, #0
 80006e6:	601a      	str	r2, [r3, #0]
 80006e8:	605a      	str	r2, [r3, #4]
 80006ea:	609a      	str	r2, [r3, #8]
 80006ec:	60da      	str	r2, [r3, #12]
 80006ee:	611a      	str	r2, [r3, #16]

  /** Configure the main internal regulator output voltage
  */
  __HAL_RCC_PWR_CLK_ENABLE();
 80006f0:	2300      	movs	r3, #0
 80006f2:	60bb      	str	r3, [r7, #8]
 80006f4:	4b28      	ldr	r3, [pc, #160]	; (8000798 <SystemClock_Config+0xcc>)
 80006f6:	6c1b      	ldr	r3, [r3, #64]	; 0x40
 80006f8:	4a27      	ldr	r2, [pc, #156]	; (8000798 <SystemClock_Config+0xcc>)
 80006fa:	f043 5380 	orr.w	r3, r3, #268435456	; 0x10000000
 80006fe:	6413      	str	r3, [r2, #64]	; 0x40
 8000700:	4b25      	ldr	r3, [pc, #148]	; (8000798 <SystemClock_Config+0xcc>)
 8000702:	6c1b      	ldr	r3, [r3, #64]	; 0x40
 8000704:	f003 5380 	and.w	r3, r3, #268435456	; 0x10000000
 8000708:	60bb      	str	r3, [r7, #8]
 800070a:	68bb      	ldr	r3, [r7, #8]
  __HAL_PWR_VOLTAGESCALING_CONFIG(PWR_REGULATOR_VOLTAGE_SCALE2);
 800070c:	2300      	movs	r3, #0
 800070e:	607b      	str	r3, [r7, #4]
 8000710:	4b22      	ldr	r3, [pc, #136]	; (800079c <SystemClock_Config+0xd0>)
 8000712:	681b      	ldr	r3, [r3, #0]
 8000714:	f423 4340 	bic.w	r3, r3, #49152	; 0xc000
 8000718:	4a20      	ldr	r2, [pc, #128]	; (800079c <SystemClock_Config+0xd0>)
 800071a:	f443 4300 	orr.w	r3, r3, #32768	; 0x8000
 800071e:	6013      	str	r3, [r2, #0]
 8000720:	4b1e      	ldr	r3, [pc, #120]	; (800079c <SystemClock_Config+0xd0>)
 8000722:	681b      	ldr	r3, [r3, #0]
 8000724:	f403 4340 	and.w	r3, r3, #49152	; 0xc000
 8000728:	607b      	str	r3, [r7, #4]
 800072a:	687b      	ldr	r3, [r7, #4]
  /** Initializes the RCC Oscillators according to the specified parameters
  * in the RCC_OscInitTypeDef structure.
  */
  RCC_OscInitStruct.OscillatorType = RCC_OSCILLATORTYPE_HSE;
 800072c:	2301      	movs	r3, #1
 800072e:	623b      	str	r3, [r7, #32]
  RCC_OscInitStruct.HSEState = RCC_HSE_ON;
 8000730:	f44f 3380 	mov.w	r3, #65536	; 0x10000
 8000734:	627b      	str	r3, [r7, #36]	; 0x24
  RCC_OscInitStruct.PLL.PLLState = RCC_PLL_ON;
 8000736:	2302      	movs	r3, #2
 8000738:	63bb      	str	r3, [r7, #56]	; 0x38
  RCC_OscInitStruct.PLL.PLLSource = RCC_PLLSOURCE_HSE;
 800073a:	f44f 0380 	mov.w	r3, #4194304	; 0x400000
 800073e:	63fb      	str	r3, [r7, #60]	; 0x3c
  RCC_OscInitStruct.PLL.PLLM = 25;
 8000740:	2319      	movs	r3, #25
 8000742:	643b      	str	r3, [r7, #64]	; 0x40
  RCC_OscInitStruct.PLL.PLLN = 168;
 8000744:	23a8      	movs	r3, #168	; 0xa8
 8000746:	647b      	str	r3, [r7, #68]	; 0x44
  RCC_OscInitStruct.PLL.PLLP = RCC_PLLP_DIV2;
 8000748:	2302      	movs	r3, #2
 800074a:	64bb      	str	r3, [r7, #72]	; 0x48
  RCC_OscInitStruct.PLL.PLLQ = 4;
 800074c:	2304      	movs	r3, #4
 800074e:	64fb      	str	r3, [r7, #76]	; 0x4c
  if (HAL_RCC_OscConfig(&RCC_OscInitStruct) != HAL_OK)
 8000750:	f107 0320 	add.w	r3, r7, #32
 8000754:	4618      	mov	r0, r3
 8000756:	f001 f9d9 	bl	8001b0c <HAL_RCC_OscConfig>
 800075a:	4603      	mov	r3, r0
 800075c:	2b00      	cmp	r3, #0
 800075e:	d001      	beq.n	8000764 <SystemClock_Config+0x98>
  {
    Error_Handler();
 8000760:	f000 f81e 	bl	80007a0 <Error_Handler>
  }
  /** Initializes the CPU, AHB and APB buses clocks
  */
  RCC_ClkInitStruct.ClockType = RCC_CLOCKTYPE_HCLK|RCC_CLOCKTYPE_SYSCLK
 8000764:	230f      	movs	r3, #15
 8000766:	60fb      	str	r3, [r7, #12]
                              |RCC_CLOCKTYPE_PCLK1|RCC_CLOCKTYPE_PCLK2;
  RCC_ClkInitStruct.SYSCLKSource = RCC_SYSCLKSOURCE_PLLCLK;
 8000768:	2302      	movs	r3, #2
 800076a:	613b      	str	r3, [r7, #16]
  RCC_ClkInitStruct.AHBCLKDivider = RCC_SYSCLK_DIV1;
 800076c:	2300      	movs	r3, #0
 800076e:	617b      	str	r3, [r7, #20]
  RCC_ClkInitStruct.APB1CLKDivider = RCC_HCLK_DIV2;
 8000770:	f44f 5380 	mov.w	r3, #4096	; 0x1000
 8000774:	61bb      	str	r3, [r7, #24]
  RCC_ClkInitStruct.APB2CLKDivider = RCC_HCLK_DIV1;
 8000776:	2300      	movs	r3, #0
 8000778:	61fb      	str	r3, [r7, #28]

  if (HAL_RCC_ClockConfig(&RCC_ClkInitStruct, FLASH_LATENCY_2) != HAL_OK)
 800077a:	f107 030c 	add.w	r3, r7, #12
 800077e:	2102      	movs	r1, #2
 8000780:	4618      	mov	r0, r3
 8000782:	f001 fc3b 	bl	8001ffc <HAL_RCC_ClockConfig>
 8000786:	4603      	mov	r3, r0
 8000788:	2b00      	cmp	r3, #0
 800078a:	d001      	beq.n	8000790 <SystemClock_Config+0xc4>
  {
    Error_Handler();
 800078c:	f000 f808 	bl	80007a0 <Error_Handler>
  }
}
 8000790:	bf00      	nop
 8000792:	3750      	adds	r7, #80	; 0x50
 8000794:	46bd      	mov	sp, r7
 8000796:	bd80      	pop	{r7, pc}
 8000798:	40023800 	.word	0x40023800
 800079c:	40007000 	.word	0x40007000

080007a0 <Error_Handler>:
/**
  * @brief  This function is executed in case of error occurrence.
  * @retval None
  */
void Error_Handler(void)
{
 80007a0:	b480      	push	{r7}
 80007a2:	af00      	add	r7, sp, #0
  \details Disables IRQ interrupts by setting the I-bit in the CPSR.
           Can only be executed in Privileged modes.
 */
__STATIC_FORCEINLINE void __disable_irq(void)
{
  __ASM volatile ("cpsid i" : : : "memory");
 80007a4:	b672      	cpsid	i
}
 80007a6:	bf00      	nop
  /* USER CODE BEGIN Error_Handler_Debug */
  /* User can add his own implementation to report the HAL error return state */
  __disable_irq();
  while (1)
 80007a8:	e7fe      	b.n	80007a8 <Error_Handler+0x8>
	...

080007ac <HAL_MspInit>:
/* USER CODE END 0 */
/**
  * Initializes the Global MSP.
  */
void HAL_MspInit(void)
{
 80007ac:	b480      	push	{r7}
 80007ae:	b083      	sub	sp, #12
 80007b0:	af00      	add	r7, sp, #0
  /* USER CODE BEGIN MspInit 0 */

  /* USER CODE END MspInit 0 */

  __HAL_RCC_SYSCFG_CLK_ENABLE();
 80007b2:	2300      	movs	r3, #0
 80007b4:	607b      	str	r3, [r7, #4]
 80007b6:	4b10      	ldr	r3, [pc, #64]	; (80007f8 <HAL_MspInit+0x4c>)
 80007b8:	6c5b      	ldr	r3, [r3, #68]	; 0x44
 80007ba:	4a0f      	ldr	r2, [pc, #60]	; (80007f8 <HAL_MspInit+0x4c>)
 80007bc:	f443 4380 	orr.w	r3, r3, #16384	; 0x4000
 80007c0:	6453      	str	r3, [r2, #68]	; 0x44
 80007c2:	4b0d      	ldr	r3, [pc, #52]	; (80007f8 <HAL_MspInit+0x4c>)
 80007c4:	6c5b      	ldr	r3, [r3, #68]	; 0x44
 80007c6:	f403 4380 	and.w	r3, r3, #16384	; 0x4000
 80007ca:	607b      	str	r3, [r7, #4]
 80007cc:	687b      	ldr	r3, [r7, #4]
  __HAL_RCC_PWR_CLK_ENABLE();
 80007ce:	2300      	movs	r3, #0
 80007d0:	603b      	str	r3, [r7, #0]
 80007d2:	4b09      	ldr	r3, [pc, #36]	; (80007f8 <HAL_MspInit+0x4c>)
 80007d4:	6c1b      	ldr	r3, [r3, #64]	; 0x40
 80007d6:	4a08      	ldr	r2, [pc, #32]	; (80007f8 <HAL_MspInit+0x4c>)
 80007d8:	f043 5380 	orr.w	r3, r3, #268435456	; 0x10000000
 80007dc:	6413      	str	r3, [r2, #64]	; 0x40
 80007de:	4b06      	ldr	r3, [pc, #24]	; (80007f8 <HAL_MspInit+0x4c>)
 80007e0:	6c1b      	ldr	r3, [r3, #64]	; 0x40
 80007e2:	f003 5380 	and.w	r3, r3, #268435456	; 0x10000000
 80007e6:	603b      	str	r3, [r7, #0]
 80007e8:	683b      	ldr	r3, [r7, #0]
  /* System interrupt init*/

  /* USER CODE BEGIN MspInit 1 */

  /* USER CODE END MspInit 1 */
}
 80007ea:	bf00      	nop
 80007ec:	370c      	adds	r7, #12
 80007ee:	46bd      	mov	sp, r7
 80007f0:	f85d 7b04 	ldr.w	r7, [sp], #4
 80007f4:	4770      	bx	lr
 80007f6:	bf00      	nop
 80007f8:	40023800 	.word	0x40023800

080007fc <NMI_Handler>:
/******************************************************************************/
/**
  * @brief This function handles Non maskable interrupt.
  */
void NMI_Handler(void)
{
 80007fc:	b480      	push	{r7}
 80007fe:	af00      	add	r7, sp, #0
  /* USER CODE BEGIN NonMaskableInt_IRQn 0 */

  /* USER CODE END NonMaskableInt_IRQn 0 */
  /* USER CODE BEGIN NonMaskableInt_IRQn 1 */
  while (1)
 8000800:	e7fe      	b.n	8000800 <NMI_Handler+0x4>

08000802 <HardFault_Handler>:

/**
  * @brief This function handles Hard fault interrupt.
  */
void HardFault_Handler(void)
{
 8000802:	b480      	push	{r7}
 8000804:	af00      	add	r7, sp, #0
  /* USER CODE BEGIN HardFault_IRQn 0 */

  /* USER CODE END HardFault_IRQn 0 */
  while (1)
 8000806:	e7fe      	b.n	8000806 <HardFault_Handler+0x4>

08000808 <MemManage_Handler>:

/**
  * @brief This function handles Memory management fault.
  */
void MemManage_Handler(void)
{
 8000808:	b480      	push	{r7}
 800080a:	af00      	add	r7, sp, #0
  /* USER CODE BEGIN MemoryManagement_IRQn 0 */

  /* USER CODE END MemoryManagement_IRQn 0 */
  while (1)
 800080c:	e7fe      	b.n	800080c <MemManage_Handler+0x4>

0800080e <BusFault_Handler>:

/**
  * @brief This function handles Pre-fetch fault, memory access fault.
  */
void BusFault_Handler(void)
{
 800080e:	b480      	push	{r7}
 8000810:	af00      	add	r7, sp, #0
  /* USER CODE BEGIN BusFault_IRQn 0 */

  /* USER CODE END BusFault_IRQn 0 */
  while (1)
 8000812:	e7fe      	b.n	8000812 <BusFault_Handler+0x4>

08000814 <UsageFault_Handler>:

/**
  * @brief This function handles Undefined instruction or illegal state.
  */
void UsageFault_Handler(void)
{
 8000814:	b480      	push	{r7}
 8000816:	af00      	add	r7, sp, #0
  /* USER CODE BEGIN UsageFault_IRQn 0 */

  /* USER CODE END UsageFault_IRQn 0 */
  while (1)
 8000818:	e7fe      	b.n	8000818 <UsageFault_Handler+0x4>

0800081a <SVC_Handler>:

/**
  * @brief This function handles System service call via SWI instruction.
  */
void SVC_Handler(void)
{
 800081a:	b480      	push	{r7}
 800081c:	af00      	add	r7, sp, #0

  /* USER CODE END SVCall_IRQn 0 */
  /* USER CODE BEGIN SVCall_IRQn 1 */

  /* USER CODE END SVCall_IRQn 1 */
}
 800081e:	bf00      	nop
 8000820:	46bd      	mov	sp, r7
 8000822:	f85d 7b04 	ldr.w	r7, [sp], #4
 8000826:	4770      	bx	lr

08000828 <DebugMon_Handler>:

/**
  * @brief This function handles Debug monitor.
  */
void DebugMon_Handler(void)
{
 8000828:	b480      	push	{r7}
 800082a:	af00      	add	r7, sp, #0

  /* USER CODE END DebugMonitor_IRQn 0 */
  /* USER CODE BEGIN DebugMonitor_IRQn 1 */

  /* USER CODE END DebugMonitor_IRQn 1 */
}
 800082c:	bf00      	nop
 800082e:	46bd      	mov	sp, r7
 8000830:	f85d 7b04 	ldr.w	r7, [sp], #4
 8000834:	4770      	bx	lr

08000836 <PendSV_Handler>:

/**
  * @brief This function handles Pendable request for system service.
  */
void PendSV_Handler(void)
{
 8000836:	b480      	push	{r7}
 8000838:	af00      	add	r7, sp, #0

  /* USER CODE END PendSV_IRQn 0 */
  /* USER CODE BEGIN PendSV_IRQn 1 */

  /* USER CODE END PendSV_IRQn 1 */
}
 800083a:	bf00      	nop
 800083c:	46bd      	mov	sp, r7
 800083e:	f85d 7b04 	ldr.w	r7, [sp], #4
 8000842:	4770      	bx	lr

08000844 <SysTick_Handler>:

/**
  * @brief This function handles System tick timer.
  */
void SysTick_Handler(void)
{
 8000844:	b580      	push	{r7, lr}
 8000846:	af00      	add	r7, sp, #0
  /* USER CODE BEGIN SysTick_IRQn 0 */

  /* USER CODE END SysTick_IRQn 0 */
  HAL_IncTick();
 8000848:	f000 f890 	bl	800096c <HAL_IncTick>
  /* USER CODE BEGIN SysTick_IRQn 1 */

  /* USER CODE END SysTick_IRQn 1 */
}
 800084c:	bf00      	nop
 800084e:	bd80      	pop	{r7, pc}

08000850 <SystemInit>:
  *         configuration.
  * @param  None
  * @retval None
  */
void SystemInit(void)
{
 8000850:	b480      	push	{r7}
 8000852:	af00      	add	r7, sp, #0
  /* FPU settings ------------------------------------------------------------*/
  #if (__FPU_PRESENT == 1) && (__FPU_USED == 1)
    SCB->CPACR |= ((3UL << 10*2)|(3UL << 11*2));  /* set CP10 and CP11 Full Access */
 8000854:	4b06      	ldr	r3, [pc, #24]	; (8000870 <SystemInit+0x20>)
 8000856:	f8d3 3088 	ldr.w	r3, [r3, #136]	; 0x88
 800085a:	4a05      	ldr	r2, [pc, #20]	; (8000870 <SystemInit+0x20>)
 800085c:	f443 0370 	orr.w	r3, r3, #15728640	; 0xf00000
 8000860:	f8c2 3088 	str.w	r3, [r2, #136]	; 0x88

  /* Configure the Vector Table location -------------------------------------*/
#if defined(USER_VECT_TAB_ADDRESS)
  SCB->VTOR = VECT_TAB_BASE_ADDRESS | VECT_TAB_OFFSET; /* Vector Table Relocation in Internal SRAM */
#endif /* USER_VECT_TAB_ADDRESS */
}
 8000864:	bf00      	nop
 8000866:	46bd      	mov	sp, r7
 8000868:	f85d 7b04 	ldr.w	r7, [sp], #4
 800086c:	4770      	bx	lr
 800086e:	bf00      	nop
 8000870:	e000ed00 	.word	0xe000ed00

08000874 <Reset_Handler>:

    .section  .text.Reset_Handler
  .weak  Reset_Handler
  .type  Reset_Handler, %function
Reset_Handler:  
  ldr   sp, =_estack      /* set stack pointer */
 8000874:	f8df d034 	ldr.w	sp, [pc, #52]	; 80008ac <LoopFillZerobss+0x12>

/* Copy the data segment initializers from flash to SRAM */  
  ldr r0, =_sdata
 8000878:	480d      	ldr	r0, [pc, #52]	; (80008b0 <LoopFillZerobss+0x16>)
  ldr r1, =_edata
 800087a:	490e      	ldr	r1, [pc, #56]	; (80008b4 <LoopFillZerobss+0x1a>)
  ldr r2, =_sidata
 800087c:	4a0e      	ldr	r2, [pc, #56]	; (80008b8 <LoopFillZerobss+0x1e>)
  movs r3, #0
 800087e:	2300      	movs	r3, #0
  b LoopCopyDataInit
 8000880:	e002      	b.n	8000888 <LoopCopyDataInit>

08000882 <CopyDataInit>:

CopyDataInit:
  ldr r4, [r2, r3]
 8000882:	58d4      	ldr	r4, [r2, r3]
  str r4, [r0, r3]
 8000884:	50c4      	str	r4, [r0, r3]
  adds r3, r3, #4
 8000886:	3304      	adds	r3, #4

08000888 <LoopCopyDataInit>:

LoopCopyDataInit:
  adds r4, r0, r3
 8000888:	18c4      	adds	r4, r0, r3
  cmp r4, r1
 800088a:	428c      	cmp	r4, r1
  bcc CopyDataInit
 800088c:	d3f9      	bcc.n	8000882 <CopyDataInit>
  
/* Zero fill the bss segment. */
  ldr r2, =_sbss
 800088e:	4a0b      	ldr	r2, [pc, #44]	; (80008bc <LoopFillZerobss+0x22>)
  ldr r4, =_ebss
 8000890:	4c0b      	ldr	r4, [pc, #44]	; (80008c0 <LoopFillZerobss+0x26>)
  movs r3, #0
 8000892:	2300      	movs	r3, #0
  b LoopFillZerobss
 8000894:	e001      	b.n	800089a <LoopFillZerobss>

08000896 <FillZerobss>:

FillZerobss:
  str  r3, [r2]
 8000896:	6013      	str	r3, [r2, #0]
  adds r2, r2, #4
 8000898:	3204      	adds	r2, #4

0800089a <LoopFillZerobss>:

LoopFillZerobss:
  cmp r2, r4
 800089a:	42a2      	cmp	r2, r4
  bcc FillZerobss
 800089c:	d3fb      	bcc.n	8000896 <FillZerobss>

/* Call the clock system intitialization function.*/
  bl  SystemInit   
 800089e:	f7ff ffd7 	bl	8000850 <SystemInit>
/* Call static constructors */
    bl __libc_init_array
 80008a2:	f001 fd67 	bl	8002374 <__libc_init_array>
/* Call the application's entry point.*/
  bl  main
 80008a6:	f7ff fee7 	bl	8000678 <main>
  bx  lr    
 80008aa:	4770      	bx	lr
  ldr   sp, =_estack      /* set stack pointer */
 80008ac:	20010000 	.word	0x20010000
  ldr r0, =_sdata
 80008b0:	20000000 	.word	0x20000000
  ldr r1, =_edata
 80008b4:	2000000c 	.word	0x2000000c
  ldr r2, =_sidata
 80008b8:	0800240c 	.word	0x0800240c
  ldr r2, =_sbss
 80008bc:	2000000c 	.word	0x2000000c
  ldr r4, =_ebss
 80008c0:	20000084 	.word	0x20000084

080008c4 <ADC_IRQHandler>:
 * @retval None       
*/
    .section  .text.Default_Handler,"ax",%progbits
Default_Handler:
Infinite_Loop:
  b  Infinite_Loop
 80008c4:	e7fe      	b.n	80008c4 <ADC_IRQHandler>
	...

080008c8 <HAL_Init>:
  *         need to ensure that the SysTick time base is always set to 1 millisecond
  *         to have correct HAL operation.
  * @retval HAL status
  */
HAL_StatusTypeDef HAL_Init(void)
{
 80008c8:	b580      	push	{r7, lr}
 80008ca:	af00      	add	r7, sp, #0
  /* Configure Flash prefetch, Instruction cache, Data cache */ 
#if (INSTRUCTION_CACHE_ENABLE != 0U)
  __HAL_FLASH_INSTRUCTION_CACHE_ENABLE();
 80008cc:	4b0e      	ldr	r3, [pc, #56]	; (8000908 <HAL_Init+0x40>)
 80008ce:	681b      	ldr	r3, [r3, #0]
 80008d0:	4a0d      	ldr	r2, [pc, #52]	; (8000908 <HAL_Init+0x40>)
 80008d2:	f443 7300 	orr.w	r3, r3, #512	; 0x200
 80008d6:	6013      	str	r3, [r2, #0]
#endif /* INSTRUCTION_CACHE_ENABLE */

#if (DATA_CACHE_ENABLE != 0U)
  __HAL_FLASH_DATA_CACHE_ENABLE();
 80008d8:	4b0b      	ldr	r3, [pc, #44]	; (8000908 <HAL_Init+0x40>)
 80008da:	681b      	ldr	r3, [r3, #0]
 80008dc:	4a0a      	ldr	r2, [pc, #40]	; (8000908 <HAL_Init+0x40>)
 80008de:	f443 6380 	orr.w	r3, r3, #1024	; 0x400
 80008e2:	6013      	str	r3, [r2, #0]
#endif /* DATA_CACHE_ENABLE */

#if (PREFETCH_ENABLE != 0U)
  __HAL_FLASH_PREFETCH_BUFFER_ENABLE();
 80008e4:	4b08      	ldr	r3, [pc, #32]	; (8000908 <HAL_Init+0x40>)
 80008e6:	681b      	ldr	r3, [r3, #0]
 80008e8:	4a07      	ldr	r2, [pc, #28]	; (8000908 <HAL_Init+0x40>)
 80008ea:	f443 7380 	orr.w	r3, r3, #256	; 0x100
 80008ee:	6013      	str	r3, [r2, #0]
#endif /* PREFETCH_ENABLE */

  /* Set Interrupt Group Priority */
  HAL_NVIC_SetPriorityGrouping(NVIC_PRIORITYGROUP_4);
 80008f0:	2003      	movs	r0, #3
 80008f2:	f000 f931 	bl	8000b58 <HAL_NVIC_SetPriorityGrouping>

  /* Use systick as time base source and configure 1ms tick (default clock after Reset is HSI) */
  HAL_InitTick(TICK_INT_PRIORITY);
 80008f6:	2000      	movs	r0, #0
 80008f8:	f000 f808 	bl	800090c <HAL_InitTick>

  /* Init the low level hardware */
  HAL_MspInit();
 80008fc:	f7ff ff56 	bl	80007ac <HAL_MspInit>

  /* Return function status */
  return HAL_OK;
 8000900:	2300      	movs	r3, #0
}
 8000902:	4618      	mov	r0, r3
 8000904:	bd80      	pop	{r7, pc}
 8000906:	bf00      	nop
 8000908:	40023c00 	.word	0x40023c00

0800090c <HAL_InitTick>:
  *       implementation  in user file.
  * @param TickPriority Tick interrupt priority.
  * @retval HAL status
  */
__weak HAL_StatusTypeDef HAL_InitTick(uint32_t TickPriority)
{
 800090c:	b580      	push	{r7, lr}
 800090e:	b082      	sub	sp, #8
 8000910:	af00      	add	r7, sp, #0
 8000912:	6078      	str	r0, [r7, #4]
  /* Configure the SysTick to have interrupt in 1ms time basis*/
  if (HAL_SYSTICK_Config(SystemCoreClock / (1000U / uwTickFreq)) > 0U)
 8000914:	4b12      	ldr	r3, [pc, #72]	; (8000960 <HAL_InitTick+0x54>)
 8000916:	681a      	ldr	r2, [r3, #0]
 8000918:	4b12      	ldr	r3, [pc, #72]	; (8000964 <HAL_InitTick+0x58>)
 800091a:	781b      	ldrb	r3, [r3, #0]
 800091c:	4619      	mov	r1, r3
 800091e:	f44f 737a 	mov.w	r3, #1000	; 0x3e8
 8000922:	fbb3 f3f1 	udiv	r3, r3, r1
 8000926:	fbb2 f3f3 	udiv	r3, r2, r3
 800092a:	4618      	mov	r0, r3
 800092c:	f000 f93b 	bl	8000ba6 <HAL_SYSTICK_Config>
 8000930:	4603      	mov	r3, r0
 8000932:	2b00      	cmp	r3, #0
 8000934:	d001      	beq.n	800093a <HAL_InitTick+0x2e>
  {
    return HAL_ERROR;
 8000936:	2301      	movs	r3, #1
 8000938:	e00e      	b.n	8000958 <HAL_InitTick+0x4c>
  }

  /* Configure the SysTick IRQ priority */
  if (TickPriority < (1UL << __NVIC_PRIO_BITS))
 800093a:	687b      	ldr	r3, [r7, #4]
 800093c:	2b0f      	cmp	r3, #15
 800093e:	d80a      	bhi.n	8000956 <HAL_InitTick+0x4a>
  {
    HAL_NVIC_SetPriority(SysTick_IRQn, TickPriority, 0U);
 8000940:	2200      	movs	r2, #0
 8000942:	6879      	ldr	r1, [r7, #4]
 8000944:	f04f 30ff 	mov.w	r0, #4294967295
 8000948:	f000 f911 	bl	8000b6e <HAL_NVIC_SetPriority>
    uwTickPrio = TickPriority;
 800094c:	4a06      	ldr	r2, [pc, #24]	; (8000968 <HAL_InitTick+0x5c>)
 800094e:	687b      	ldr	r3, [r7, #4]
 8000950:	6013      	str	r3, [r2, #0]
  {
    return HAL_ERROR;
  }

  /* Return function status */
  return HAL_OK;
 8000952:	2300      	movs	r3, #0
 8000954:	e000      	b.n	8000958 <HAL_InitTick+0x4c>
    return HAL_ERROR;
 8000956:	2301      	movs	r3, #1
}
 8000958:	4618      	mov	r0, r3
 800095a:	3708      	adds	r7, #8
 800095c:	46bd      	mov	sp, r7
 800095e:	bd80      	pop	{r7, pc}
 8000960:	20000000 	.word	0x20000000
 8000964:	20000008 	.word	0x20000008
 8000968:	20000004 	.word	0x20000004

0800096c <HAL_IncTick>:
 * @note This function is declared as __weak to be overwritten in case of other 
  *      implementations in user file.
  * @retval None
  */
__weak void HAL_IncTick(void)
{
 800096c:	b480      	push	{r7}
 800096e:	af00      	add	r7, sp, #0
  uwTick += uwTickFreq;
 8000970:	4b06      	ldr	r3, [pc, #24]	; (800098c <HAL_IncTick+0x20>)
 8000972:	781b      	ldrb	r3, [r3, #0]
 8000974:	461a      	mov	r2, r3
 8000976:	4b06      	ldr	r3, [pc, #24]	; (8000990 <HAL_IncTick+0x24>)
 8000978:	681b      	ldr	r3, [r3, #0]
 800097a:	4413      	add	r3, r2
 800097c:	4a04      	ldr	r2, [pc, #16]	; (8000990 <HAL_IncTick+0x24>)
 800097e:	6013      	str	r3, [r2, #0]
}
 8000980:	bf00      	nop
 8000982:	46bd      	mov	sp, r7
 8000984:	f85d 7b04 	ldr.w	r7, [sp], #4
 8000988:	4770      	bx	lr
 800098a:	bf00      	nop
 800098c:	20000008 	.word	0x20000008
 8000990:	20000080 	.word	0x20000080

08000994 <HAL_GetTick>:
  * @note This function is declared as __weak to be overwritten in case of other 
  *       implementations in user file.
  * @retval tick value
  */
__weak uint32_t HAL_GetTick(void)
{
 8000994:	b480      	push	{r7}
 8000996:	af00      	add	r7, sp, #0
  return uwTick;
 8000998:	4b03      	ldr	r3, [pc, #12]	; (80009a8 <HAL_GetTick+0x14>)
 800099a:	681b      	ldr	r3, [r3, #0]
}
 800099c:	4618      	mov	r0, r3
 800099e:	46bd      	mov	sp, r7
 80009a0:	f85d 7b04 	ldr.w	r7, [sp], #4
 80009a4:	4770      	bx	lr
 80009a6:	bf00      	nop
 80009a8:	20000080 	.word	0x20000080

080009ac <HAL_Delay>:
  *       implementations in user file.
  * @param Delay specifies the delay time length, in milliseconds.
  * @retval None
  */
__weak void HAL_Delay(uint32_t Delay)
{
 80009ac:	b580      	push	{r7, lr}
 80009ae:	b084      	sub	sp, #16
 80009b0:	af00      	add	r7, sp, #0
 80009b2:	6078      	str	r0, [r7, #4]
  uint32_t tickstart = HAL_GetTick();
 80009b4:	f7ff ffee 	bl	8000994 <HAL_GetTick>
 80009b8:	60b8      	str	r0, [r7, #8]
  uint32_t wait = Delay;
 80009ba:	687b      	ldr	r3, [r7, #4]
 80009bc:	60fb      	str	r3, [r7, #12]

  /* Add a freq to guarantee minimum wait */
  if (wait < HAL_MAX_DELAY)
 80009be:	68fb      	ldr	r3, [r7, #12]
 80009c0:	f1b3 3fff 	cmp.w	r3, #4294967295
 80009c4:	d005      	beq.n	80009d2 <HAL_Delay+0x26>
  {
    wait += (uint32_t)(uwTickFreq);
 80009c6:	4b0a      	ldr	r3, [pc, #40]	; (80009f0 <HAL_Delay+0x44>)
 80009c8:	781b      	ldrb	r3, [r3, #0]
 80009ca:	461a      	mov	r2, r3
 80009cc:	68fb      	ldr	r3, [r7, #12]
 80009ce:	4413      	add	r3, r2
 80009d0:	60fb      	str	r3, [r7, #12]
  }

  while((HAL_GetTick() - tickstart) < wait)
 80009d2:	bf00      	nop
 80009d4:	f7ff ffde 	bl	8000994 <HAL_GetTick>
 80009d8:	4602      	mov	r2, r0
 80009da:	68bb      	ldr	r3, [r7, #8]
 80009dc:	1ad3      	subs	r3, r2, r3
 80009de:	68fa      	ldr	r2, [r7, #12]
 80009e0:	429a      	cmp	r2, r3
 80009e2:	d8f7      	bhi.n	80009d4 <HAL_Delay+0x28>
  {
  }
}
 80009e4:	bf00      	nop
 80009e6:	bf00      	nop
 80009e8:	3710      	adds	r7, #16
 80009ea:	46bd      	mov	sp, r7
 80009ec:	bd80      	pop	{r7, pc}
 80009ee:	bf00      	nop
 80009f0:	20000008 	.word	0x20000008

080009f4 <__NVIC_SetPriorityGrouping>:
           In case of a conflict between priority grouping and available
           priority bits (__NVIC_PRIO_BITS), the smallest possible priority group is set.
  \param [in]      PriorityGroup  Priority grouping field.
 */
__STATIC_INLINE void __NVIC_SetPriorityGrouping(uint32_t PriorityGroup)
{
 80009f4:	b480      	push	{r7}
 80009f6:	b085      	sub	sp, #20
 80009f8:	af00      	add	r7, sp, #0
 80009fa:	6078      	str	r0, [r7, #4]
  uint32_t reg_value;
  uint32_t PriorityGroupTmp = (PriorityGroup & (uint32_t)0x07UL);             /* only values 0..7 are used          */
 80009fc:	687b      	ldr	r3, [r7, #4]
 80009fe:	f003 0307 	and.w	r3, r3, #7
 8000a02:	60fb      	str	r3, [r7, #12]

  reg_value  =  SCB->AIRCR;                                                   /* read old register configuration    */
 8000a04:	4b0c      	ldr	r3, [pc, #48]	; (8000a38 <__NVIC_SetPriorityGrouping+0x44>)
 8000a06:	68db      	ldr	r3, [r3, #12]
 8000a08:	60bb      	str	r3, [r7, #8]
  reg_value &= ~((uint32_t)(SCB_AIRCR_VECTKEY_Msk | SCB_AIRCR_PRIGROUP_Msk)); /* clear bits to change               */
 8000a0a:	68ba      	ldr	r2, [r7, #8]
 8000a0c:	f64f 03ff 	movw	r3, #63743	; 0xf8ff
 8000a10:	4013      	ands	r3, r2
 8000a12:	60bb      	str	r3, [r7, #8]
  reg_value  =  (reg_value                                   |
                ((uint32_t)0x5FAUL << SCB_AIRCR_VECTKEY_Pos) |
                (PriorityGroupTmp << SCB_AIRCR_PRIGROUP_Pos)  );              /* Insert write key and priority group */
 8000a14:	68fb      	ldr	r3, [r7, #12]
 8000a16:	021a      	lsls	r2, r3, #8
                ((uint32_t)0x5FAUL << SCB_AIRCR_VECTKEY_Pos) |
 8000a18:	68bb      	ldr	r3, [r7, #8]
 8000a1a:	4313      	orrs	r3, r2
  reg_value  =  (reg_value                                   |
 8000a1c:	f043 63bf 	orr.w	r3, r3, #100139008	; 0x5f80000
 8000a20:	f443 3300 	orr.w	r3, r3, #131072	; 0x20000
 8000a24:	60bb      	str	r3, [r7, #8]
  SCB->AIRCR =  reg_value;
 8000a26:	4a04      	ldr	r2, [pc, #16]	; (8000a38 <__NVIC_SetPriorityGrouping+0x44>)
 8000a28:	68bb      	ldr	r3, [r7, #8]
 8000a2a:	60d3      	str	r3, [r2, #12]
}
 8000a2c:	bf00      	nop
 8000a2e:	3714      	adds	r7, #20
 8000a30:	46bd      	mov	sp, r7
 8000a32:	f85d 7b04 	ldr.w	r7, [sp], #4
 8000a36:	4770      	bx	lr
 8000a38:	e000ed00 	.word	0xe000ed00

08000a3c <__NVIC_GetPriorityGrouping>:
  \brief   Get Priority Grouping
  \details Reads the priority grouping field from the NVIC Interrupt Controller.
  \return                Priority grouping field (SCB->AIRCR [10:8] PRIGROUP field).
 */
__STATIC_INLINE uint32_t __NVIC_GetPriorityGrouping(void)
{
 8000a3c:	b480      	push	{r7}
 8000a3e:	af00      	add	r7, sp, #0
  return ((uint32_t)((SCB->AIRCR & SCB_AIRCR_PRIGROUP_Msk) >> SCB_AIRCR_PRIGROUP_Pos));
 8000a40:	4b04      	ldr	r3, [pc, #16]	; (8000a54 <__NVIC_GetPriorityGrouping+0x18>)
 8000a42:	68db      	ldr	r3, [r3, #12]
 8000a44:	0a1b      	lsrs	r3, r3, #8
 8000a46:	f003 0307 	and.w	r3, r3, #7
}
 8000a4a:	4618      	mov	r0, r3
 8000a4c:	46bd      	mov	sp, r7
 8000a4e:	f85d 7b04 	ldr.w	r7, [sp], #4
 8000a52:	4770      	bx	lr
 8000a54:	e000ed00 	.word	0xe000ed00

08000a58 <__NVIC_SetPriority>:
  \param [in]      IRQn  Interrupt number.
  \param [in]  priority  Priority to set.
  \note    The priority cannot be set for every processor exception.
 */
__STATIC_INLINE void __NVIC_SetPriority(IRQn_Type IRQn, uint32_t priority)
{
 8000a58:	b480      	push	{r7}
 8000a5a:	b083      	sub	sp, #12
 8000a5c:	af00      	add	r7, sp, #0
 8000a5e:	4603      	mov	r3, r0
 8000a60:	6039      	str	r1, [r7, #0]
 8000a62:	71fb      	strb	r3, [r7, #7]
  if ((int32_t)(IRQn) >= 0)
 8000a64:	f997 3007 	ldrsb.w	r3, [r7, #7]
 8000a68:	2b00      	cmp	r3, #0
 8000a6a:	db0a      	blt.n	8000a82 <__NVIC_SetPriority+0x2a>
  {
    NVIC->IP[((uint32_t)IRQn)]               = (uint8_t)((priority << (8U - __NVIC_PRIO_BITS)) & (uint32_t)0xFFUL);
 8000a6c:	683b      	ldr	r3, [r7, #0]
 8000a6e:	b2da      	uxtb	r2, r3
 8000a70:	490c      	ldr	r1, [pc, #48]	; (8000aa4 <__NVIC_SetPriority+0x4c>)
 8000a72:	f997 3007 	ldrsb.w	r3, [r7, #7]
 8000a76:	0112      	lsls	r2, r2, #4
 8000a78:	b2d2      	uxtb	r2, r2
 8000a7a:	440b      	add	r3, r1
 8000a7c:	f883 2300 	strb.w	r2, [r3, #768]	; 0x300
  }
  else
  {
    SCB->SHP[(((uint32_t)IRQn) & 0xFUL)-4UL] = (uint8_t)((priority << (8U - __NVIC_PRIO_BITS)) & (uint32_t)0xFFUL);
  }
}
 8000a80:	e00a      	b.n	8000a98 <__NVIC_SetPriority+0x40>
    SCB->SHP[(((uint32_t)IRQn) & 0xFUL)-4UL] = (uint8_t)((priority << (8U - __NVIC_PRIO_BITS)) & (uint32_t)0xFFUL);
 8000a82:	683b      	ldr	r3, [r7, #0]
 8000a84:	b2da      	uxtb	r2, r3
 8000a86:	4908      	ldr	r1, [pc, #32]	; (8000aa8 <__NVIC_SetPriority+0x50>)
 8000a88:	79fb      	ldrb	r3, [r7, #7]
 8000a8a:	f003 030f 	and.w	r3, r3, #15
 8000a8e:	3b04      	subs	r3, #4
 8000a90:	0112      	lsls	r2, r2, #4
 8000a92:	b2d2      	uxtb	r2, r2
 8000a94:	440b      	add	r3, r1
 8000a96:	761a      	strb	r2, [r3, #24]
}
 8000a98:	bf00      	nop
 8000a9a:	370c      	adds	r7, #12
 8000a9c:	46bd      	mov	sp, r7
 8000a9e:	f85d 7b04 	ldr.w	r7, [sp], #4
 8000aa2:	4770      	bx	lr
 8000aa4:	e000e100 	.word	0xe000e100
 8000aa8:	e000ed00 	.word	0xe000ed00

08000aac <NVIC_EncodePriority>:
  \param [in]   PreemptPriority  Preemptive priority value (starting from 0).
  \param [in]       SubPriority  Subpriority value (starting from 0).
  \return                        Encoded priority. Value can be used in the function \ref NVIC_SetPriority().
 */
__STATIC_INLINE uint32_t NVIC_EncodePriority (uint32_t PriorityGroup, uint32_t PreemptPriority, uint32_t SubPriority)
{
 8000aac:	b480      	push	{r7}
 8000aae:	b089      	sub	sp, #36	; 0x24
 8000ab0:	af00      	add	r7, sp, #0
 8000ab2:	60f8      	str	r0, [r7, #12]
 8000ab4:	60b9      	str	r1, [r7, #8]
 8000ab6:	607a      	str	r2, [r7, #4]
  uint32_t PriorityGroupTmp = (PriorityGroup & (uint32_t)0x07UL);   /* only values 0..7 are used          */
 8000ab8:	68fb      	ldr	r3, [r7, #12]
 8000aba:	f003 0307 	and.w	r3, r3, #7
 8000abe:	61fb      	str	r3, [r7, #28]
  uint32_t PreemptPriorityBits;
  uint32_t SubPriorityBits;

  PreemptPriorityBits = ((7UL - PriorityGroupTmp) > (uint32_t)(__NVIC_PRIO_BITS)) ? (uint32_t)(__NVIC_PRIO_BITS) : (uint32_t)(7UL - PriorityGroupTmp);
 8000ac0:	69fb      	ldr	r3, [r7, #28]
 8000ac2:	f1c3 0307 	rsb	r3, r3, #7
 8000ac6:	2b04      	cmp	r3, #4
 8000ac8:	bf28      	it	cs
 8000aca:	2304      	movcs	r3, #4
 8000acc:	61bb      	str	r3, [r7, #24]
  SubPriorityBits     = ((PriorityGroupTmp + (uint32_t)(__NVIC_PRIO_BITS)) < (uint32_t)7UL) ? (uint32_t)0UL : (uint32_t)((PriorityGroupTmp - 7UL) + (uint32_t)(__NVIC_PRIO_BITS));
 8000ace:	69fb      	ldr	r3, [r7, #28]
 8000ad0:	3304      	adds	r3, #4
 8000ad2:	2b06      	cmp	r3, #6
 8000ad4:	d902      	bls.n	8000adc <NVIC_EncodePriority+0x30>
 8000ad6:	69fb      	ldr	r3, [r7, #28]
 8000ad8:	3b03      	subs	r3, #3
 8000ada:	e000      	b.n	8000ade <NVIC_EncodePriority+0x32>
 8000adc:	2300      	movs	r3, #0
 8000ade:	617b      	str	r3, [r7, #20]

  return (
           ((PreemptPriority & (uint32_t)((1UL << (PreemptPriorityBits)) - 1UL)) << SubPriorityBits) |
 8000ae0:	f04f 32ff 	mov.w	r2, #4294967295
 8000ae4:	69bb      	ldr	r3, [r7, #24]
 8000ae6:	fa02 f303 	lsl.w	r3, r2, r3
 8000aea:	43da      	mvns	r2, r3
 8000aec:	68bb      	ldr	r3, [r7, #8]
 8000aee:	401a      	ands	r2, r3
 8000af0:	697b      	ldr	r3, [r7, #20]
 8000af2:	409a      	lsls	r2, r3
           ((SubPriority     & (uint32_t)((1UL << (SubPriorityBits    )) - 1UL)))
 8000af4:	f04f 31ff 	mov.w	r1, #4294967295
 8000af8:	697b      	ldr	r3, [r7, #20]
 8000afa:	fa01 f303 	lsl.w	r3, r1, r3
 8000afe:	43d9      	mvns	r1, r3
 8000b00:	687b      	ldr	r3, [r7, #4]
 8000b02:	400b      	ands	r3, r1
           ((PreemptPriority & (uint32_t)((1UL << (PreemptPriorityBits)) - 1UL)) << SubPriorityBits) |
 8000b04:	4313      	orrs	r3, r2
         );
}
 8000b06:	4618      	mov	r0, r3
 8000b08:	3724      	adds	r7, #36	; 0x24
 8000b0a:	46bd      	mov	sp, r7
 8000b0c:	f85d 7b04 	ldr.w	r7, [sp], #4
 8000b10:	4770      	bx	lr
	...

08000b14 <SysTick_Config>:
  \note    When the variable <b>__Vendor_SysTickConfig</b> is set to 1, then the
           function <b>SysTick_Config</b> is not included. In this case, the file <b><i>device</i>.h</b>
           must contain a vendor-specific implementation of this function.
 */
__STATIC_INLINE uint32_t SysTick_Config(uint32_t ticks)
{
 8000b14:	b580      	push	{r7, lr}
 8000b16:	b082      	sub	sp, #8
 8000b18:	af00      	add	r7, sp, #0
 8000b1a:	6078      	str	r0, [r7, #4]
  if ((ticks - 1UL) > SysTick_LOAD_RELOAD_Msk)
 8000b1c:	687b      	ldr	r3, [r7, #4]
 8000b1e:	3b01      	subs	r3, #1
 8000b20:	f1b3 7f80 	cmp.w	r3, #16777216	; 0x1000000
 8000b24:	d301      	bcc.n	8000b2a <SysTick_Config+0x16>
  {
    return (1UL);                                                   /* Reload value impossible */
 8000b26:	2301      	movs	r3, #1
 8000b28:	e00f      	b.n	8000b4a <SysTick_Config+0x36>
  }

  SysTick->LOAD  = (uint32_t)(ticks - 1UL);                         /* set reload register */
 8000b2a:	4a0a      	ldr	r2, [pc, #40]	; (8000b54 <SysTick_Config+0x40>)
 8000b2c:	687b      	ldr	r3, [r7, #4]
 8000b2e:	3b01      	subs	r3, #1
 8000b30:	6053      	str	r3, [r2, #4]
  NVIC_SetPriority (SysTick_IRQn, (1UL << __NVIC_PRIO_BITS) - 1UL); /* set Priority for Systick Interrupt */
 8000b32:	210f      	movs	r1, #15
 8000b34:	f04f 30ff 	mov.w	r0, #4294967295
 8000b38:	f7ff ff8e 	bl	8000a58 <__NVIC_SetPriority>
  SysTick->VAL   = 0UL;                                             /* Load the SysTick Counter Value */
 8000b3c:	4b05      	ldr	r3, [pc, #20]	; (8000b54 <SysTick_Config+0x40>)
 8000b3e:	2200      	movs	r2, #0
 8000b40:	609a      	str	r2, [r3, #8]
  SysTick->CTRL  = SysTick_CTRL_CLKSOURCE_Msk |
 8000b42:	4b04      	ldr	r3, [pc, #16]	; (8000b54 <SysTick_Config+0x40>)
 8000b44:	2207      	movs	r2, #7
 8000b46:	601a      	str	r2, [r3, #0]
                   SysTick_CTRL_TICKINT_Msk   |
                   SysTick_CTRL_ENABLE_Msk;                         /* Enable SysTick IRQ and SysTick Timer */
  return (0UL);                                                     /* Function successful */
 8000b48:	2300      	movs	r3, #0
}
 8000b4a:	4618      	mov	r0, r3
 8000b4c:	3708      	adds	r7, #8
 8000b4e:	46bd      	mov	sp, r7
 8000b50:	bd80      	pop	{r7, pc}
 8000b52:	bf00      	nop
 8000b54:	e000e010 	.word	0xe000e010

08000b58 <HAL_NVIC_SetPriorityGrouping>:
  * @note   When the NVIC_PriorityGroup_0 is selected, IRQ preemption is no more possible. 
  *         The pending IRQ priority will be managed only by the subpriority. 
  * @retval None
  */
void HAL_NVIC_SetPriorityGrouping(uint32_t PriorityGroup)
{
 8000b58:	b580      	push	{r7, lr}
 8000b5a:	b082      	sub	sp, #8
 8000b5c:	af00      	add	r7, sp, #0
 8000b5e:	6078      	str	r0, [r7, #4]
  /* Check the parameters */
  assert_param(IS_NVIC_PRIORITY_GROUP(PriorityGroup));
  
  /* Set the PRIGROUP[10:8] bits according to the PriorityGroup parameter value */
  NVIC_SetPriorityGrouping(PriorityGroup);
 8000b60:	6878      	ldr	r0, [r7, #4]
 8000b62:	f7ff ff47 	bl	80009f4 <__NVIC_SetPriorityGrouping>
}
 8000b66:	bf00      	nop
 8000b68:	3708      	adds	r7, #8
 8000b6a:	46bd      	mov	sp, r7
 8000b6c:	bd80      	pop	{r7, pc}

08000b6e <HAL_NVIC_SetPriority>:
  *         This parameter can be a value between 0 and 15
  *         A lower priority value indicates a higher priority.          
  * @retval None
  */
void HAL_NVIC_SetPriority(IRQn_Type IRQn, uint32_t PreemptPriority, uint32_t SubPriority)
{ 
 8000b6e:	b580      	push	{r7, lr}
 8000b70:	b086      	sub	sp, #24
 8000b72:	af00      	add	r7, sp, #0
 8000b74:	4603      	mov	r3, r0
 8000b76:	60b9      	str	r1, [r7, #8]
 8000b78:	607a      	str	r2, [r7, #4]
 8000b7a:	73fb      	strb	r3, [r7, #15]
  uint32_t prioritygroup = 0x00U;
 8000b7c:	2300      	movs	r3, #0
 8000b7e:	617b      	str	r3, [r7, #20]
  
  /* Check the parameters */
  assert_param(IS_NVIC_SUB_PRIORITY(SubPriority));
  assert_param(IS_NVIC_PREEMPTION_PRIORITY(PreemptPriority));
  
  prioritygroup = NVIC_GetPriorityGrouping();
 8000b80:	f7ff ff5c 	bl	8000a3c <__NVIC_GetPriorityGrouping>
 8000b84:	6178      	str	r0, [r7, #20]
  
  NVIC_SetPriority(IRQn, NVIC_EncodePriority(prioritygroup, PreemptPriority, SubPriority));
 8000b86:	687a      	ldr	r2, [r7, #4]
 8000b88:	68b9      	ldr	r1, [r7, #8]
 8000b8a:	6978      	ldr	r0, [r7, #20]
 8000b8c:	f7ff ff8e 	bl	8000aac <NVIC_EncodePriority>
 8000b90:	4602      	mov	r2, r0
 8000b92:	f997 300f 	ldrsb.w	r3, [r7, #15]
 8000b96:	4611      	mov	r1, r2
 8000b98:	4618      	mov	r0, r3
 8000b9a:	f7ff ff5d 	bl	8000a58 <__NVIC_SetPriority>
}
 8000b9e:	bf00      	nop
 8000ba0:	3718      	adds	r7, #24
 8000ba2:	46bd      	mov	sp, r7
 8000ba4:	bd80      	pop	{r7, pc}

08000ba6 <HAL_SYSTICK_Config>:
  * @param  TicksNumb Specifies the ticks Number of ticks between two interrupts.
  * @retval status:  - 0  Function succeeded.
  *                  - 1  Function failed.
  */
uint32_t HAL_SYSTICK_Config(uint32_t TicksNumb)
{
 8000ba6:	b580      	push	{r7, lr}
 8000ba8:	b082      	sub	sp, #8
 8000baa:	af00      	add	r7, sp, #0
 8000bac:	6078      	str	r0, [r7, #4]
   return SysTick_Config(TicksNumb);
 8000bae:	6878      	ldr	r0, [r7, #4]
 8000bb0:	f7ff ffb0 	bl	8000b14 <SysTick_Config>
 8000bb4:	4603      	mov	r3, r0
}
 8000bb6:	4618      	mov	r0, r3
 8000bb8:	3708      	adds	r7, #8
 8000bba:	46bd      	mov	sp, r7
 8000bbc:	bd80      	pop	{r7, pc}
	...

08000bc0 <HAL_GPIO_Init>:
  * @param  GPIO_Init pointer to a GPIO_InitTypeDef structure that contains
  *         the configuration information for the specified GPIO peripheral.
  * @retval None
  */
void HAL_GPIO_Init(GPIO_TypeDef  *GPIOx, GPIO_InitTypeDef *GPIO_Init)
{
 8000bc0:	b480      	push	{r7}
 8000bc2:	b089      	sub	sp, #36	; 0x24
 8000bc4:	af00      	add	r7, sp, #0
 8000bc6:	6078      	str	r0, [r7, #4]
 8000bc8:	6039      	str	r1, [r7, #0]
  uint32_t position;
  uint32_t ioposition = 0x00U;
 8000bca:	2300      	movs	r3, #0
 8000bcc:	617b      	str	r3, [r7, #20]
  uint32_t iocurrent = 0x00U;
 8000bce:	2300      	movs	r3, #0
 8000bd0:	613b      	str	r3, [r7, #16]
  uint32_t temp = 0x00U;
 8000bd2:	2300      	movs	r3, #0
 8000bd4:	61bb      	str	r3, [r7, #24]
  assert_param(IS_GPIO_ALL_INSTANCE(GPIOx));
  assert_param(IS_GPIO_PIN(GPIO_Init->Pin));
  assert_param(IS_GPIO_MODE(GPIO_Init->Mode));

  /* Configure the port pins */
  for(position = 0U; position < GPIO_NUMBER; position++)
 8000bd6:	2300      	movs	r3, #0
 8000bd8:	61fb      	str	r3, [r7, #28]
 8000bda:	e159      	b.n	8000e90 <HAL_GPIO_Init+0x2d0>
  {
    /* Get the IO position */
    ioposition = 0x01U << position;
 8000bdc:	2201      	movs	r2, #1
 8000bde:	69fb      	ldr	r3, [r7, #28]
 8000be0:	fa02 f303 	lsl.w	r3, r2, r3
 8000be4:	617b      	str	r3, [r7, #20]
    /* Get the current IO position */
    iocurrent = (uint32_t)(GPIO_Init->Pin) & ioposition;
 8000be6:	683b      	ldr	r3, [r7, #0]
 8000be8:	681b      	ldr	r3, [r3, #0]
 8000bea:	697a      	ldr	r2, [r7, #20]
 8000bec:	4013      	ands	r3, r2
 8000bee:	613b      	str	r3, [r7, #16]

    if(iocurrent == ioposition)
 8000bf0:	693a      	ldr	r2, [r7, #16]
 8000bf2:	697b      	ldr	r3, [r7, #20]
 8000bf4:	429a      	cmp	r2, r3
 8000bf6:	f040 8148 	bne.w	8000e8a <HAL_GPIO_Init+0x2ca>
    {
      /*--------------------- GPIO Mode Configuration ------------------------*/
      /* In case of Output or Alternate function mode selection */
      if(((GPIO_Init->Mode & GPIO_MODE) == MODE_OUTPUT) || \
 8000bfa:	683b      	ldr	r3, [r7, #0]
 8000bfc:	685b      	ldr	r3, [r3, #4]
 8000bfe:	f003 0303 	and.w	r3, r3, #3
 8000c02:	2b01      	cmp	r3, #1
 8000c04:	d005      	beq.n	8000c12 <HAL_GPIO_Init+0x52>
          (GPIO_Init->Mode & GPIO_MODE) == MODE_AF)
 8000c06:	683b      	ldr	r3, [r7, #0]
 8000c08:	685b      	ldr	r3, [r3, #4]
 8000c0a:	f003 0303 	and.w	r3, r3, #3
      if(((GPIO_Init->Mode & GPIO_MODE) == MODE_OUTPUT) || \
 8000c0e:	2b02      	cmp	r3, #2
 8000c10:	d130      	bne.n	8000c74 <HAL_GPIO_Init+0xb4>
      {
        /* Check the Speed parameter */
        assert_param(IS_GPIO_SPEED(GPIO_Init->Speed));
        /* Configure the IO Speed */
        temp = GPIOx->OSPEEDR; 
 8000c12:	687b      	ldr	r3, [r7, #4]
 8000c14:	689b      	ldr	r3, [r3, #8]
 8000c16:	61bb      	str	r3, [r7, #24]
        temp &= ~(GPIO_OSPEEDER_OSPEEDR0 << (position * 2U));
 8000c18:	69fb      	ldr	r3, [r7, #28]
 8000c1a:	005b      	lsls	r3, r3, #1
 8000c1c:	2203      	movs	r2, #3
 8000c1e:	fa02 f303 	lsl.w	r3, r2, r3
 8000c22:	43db      	mvns	r3, r3
 8000c24:	69ba      	ldr	r2, [r7, #24]
 8000c26:	4013      	ands	r3, r2
 8000c28:	61bb      	str	r3, [r7, #24]
        temp |= (GPIO_Init->Speed << (position * 2U));
 8000c2a:	683b      	ldr	r3, [r7, #0]
 8000c2c:	68da      	ldr	r2, [r3, #12]
 8000c2e:	69fb      	ldr	r3, [r7, #28]
 8000c30:	005b      	lsls	r3, r3, #1
 8000c32:	fa02 f303 	lsl.w	r3, r2, r3
 8000c36:	69ba      	ldr	r2, [r7, #24]
 8000c38:	4313      	orrs	r3, r2
 8000c3a:	61bb      	str	r3, [r7, #24]
        GPIOx->OSPEEDR = temp;
 8000c3c:	687b      	ldr	r3, [r7, #4]
 8000c3e:	69ba      	ldr	r2, [r7, #24]
 8000c40:	609a      	str	r2, [r3, #8]

        /* Configure the IO Output Type */
        temp = GPIOx->OTYPER;
 8000c42:	687b      	ldr	r3, [r7, #4]
 8000c44:	685b      	ldr	r3, [r3, #4]
 8000c46:	61bb      	str	r3, [r7, #24]
        temp &= ~(GPIO_OTYPER_OT_0 << position) ;
 8000c48:	2201      	movs	r2, #1
 8000c4a:	69fb      	ldr	r3, [r7, #28]
 8000c4c:	fa02 f303 	lsl.w	r3, r2, r3
 8000c50:	43db      	mvns	r3, r3
 8000c52:	69ba      	ldr	r2, [r7, #24]
 8000c54:	4013      	ands	r3, r2
 8000c56:	61bb      	str	r3, [r7, #24]
        temp |= (((GPIO_Init->Mode & OUTPUT_TYPE) >> OUTPUT_TYPE_Pos) << position);
 8000c58:	683b      	ldr	r3, [r7, #0]
 8000c5a:	685b      	ldr	r3, [r3, #4]
 8000c5c:	091b      	lsrs	r3, r3, #4
 8000c5e:	f003 0201 	and.w	r2, r3, #1
 8000c62:	69fb      	ldr	r3, [r7, #28]
 8000c64:	fa02 f303 	lsl.w	r3, r2, r3
 8000c68:	69ba      	ldr	r2, [r7, #24]
 8000c6a:	4313      	orrs	r3, r2
 8000c6c:	61bb      	str	r3, [r7, #24]
        GPIOx->OTYPER = temp;
 8000c6e:	687b      	ldr	r3, [r7, #4]
 8000c70:	69ba      	ldr	r2, [r7, #24]
 8000c72:	605a      	str	r2, [r3, #4]
       }

      if((GPIO_Init->Mode & GPIO_MODE) != MODE_ANALOG)
 8000c74:	683b      	ldr	r3, [r7, #0]
 8000c76:	685b      	ldr	r3, [r3, #4]
 8000c78:	f003 0303 	and.w	r3, r3, #3
 8000c7c:	2b03      	cmp	r3, #3
 8000c7e:	d017      	beq.n	8000cb0 <HAL_GPIO_Init+0xf0>
      {
        /* Check the parameters */
        assert_param(IS_GPIO_PULL(GPIO_Init->Pull));
        
        /* Activate the Pull-up or Pull down resistor for the current IO */
        temp = GPIOx->PUPDR;
 8000c80:	687b      	ldr	r3, [r7, #4]
 8000c82:	68db      	ldr	r3, [r3, #12]
 8000c84:	61bb      	str	r3, [r7, #24]
        temp &= ~(GPIO_PUPDR_PUPDR0 << (position * 2U));
 8000c86:	69fb      	ldr	r3, [r7, #28]
 8000c88:	005b      	lsls	r3, r3, #1
 8000c8a:	2203      	movs	r2, #3
 8000c8c:	fa02 f303 	lsl.w	r3, r2, r3
 8000c90:	43db      	mvns	r3, r3
 8000c92:	69ba      	ldr	r2, [r7, #24]
 8000c94:	4013      	ands	r3, r2
 8000c96:	61bb      	str	r3, [r7, #24]
        temp |= ((GPIO_Init->Pull) << (position * 2U));
 8000c98:	683b      	ldr	r3, [r7, #0]
 8000c9a:	689a      	ldr	r2, [r3, #8]
 8000c9c:	69fb      	ldr	r3, [r7, #28]
 8000c9e:	005b      	lsls	r3, r3, #1
 8000ca0:	fa02 f303 	lsl.w	r3, r2, r3
 8000ca4:	69ba      	ldr	r2, [r7, #24]
 8000ca6:	4313      	orrs	r3, r2
 8000ca8:	61bb      	str	r3, [r7, #24]
        GPIOx->PUPDR = temp;
 8000caa:	687b      	ldr	r3, [r7, #4]
 8000cac:	69ba      	ldr	r2, [r7, #24]
 8000cae:	60da      	str	r2, [r3, #12]
      }

      /* In case of Alternate function mode selection */
      if((GPIO_Init->Mode & GPIO_MODE) == MODE_AF)
 8000cb0:	683b      	ldr	r3, [r7, #0]
 8000cb2:	685b      	ldr	r3, [r3, #4]
 8000cb4:	f003 0303 	and.w	r3, r3, #3
 8000cb8:	2b02      	cmp	r3, #2
 8000cba:	d123      	bne.n	8000d04 <HAL_GPIO_Init+0x144>
      {
        /* Check the Alternate function parameter */
        assert_param(IS_GPIO_AF(GPIO_Init->Alternate));
        /* Configure Alternate function mapped with the current IO */
        temp = GPIOx->AFR[position >> 3U];
 8000cbc:	69fb      	ldr	r3, [r7, #28]
 8000cbe:	08da      	lsrs	r2, r3, #3
 8000cc0:	687b      	ldr	r3, [r7, #4]
 8000cc2:	3208      	adds	r2, #8
 8000cc4:	f853 3022 	ldr.w	r3, [r3, r2, lsl #2]
 8000cc8:	61bb      	str	r3, [r7, #24]
        temp &= ~(0xFU << ((uint32_t)(position & 0x07U) * 4U)) ;
 8000cca:	69fb      	ldr	r3, [r7, #28]
 8000ccc:	f003 0307 	and.w	r3, r3, #7
 8000cd0:	009b      	lsls	r3, r3, #2
 8000cd2:	220f      	movs	r2, #15
 8000cd4:	fa02 f303 	lsl.w	r3, r2, r3
 8000cd8:	43db      	mvns	r3, r3
 8000cda:	69ba      	ldr	r2, [r7, #24]
 8000cdc:	4013      	ands	r3, r2
 8000cde:	61bb      	str	r3, [r7, #24]
        temp |= ((uint32_t)(GPIO_Init->Alternate) << (((uint32_t)position & 0x07U) * 4U));
 8000ce0:	683b      	ldr	r3, [r7, #0]
 8000ce2:	691a      	ldr	r2, [r3, #16]
 8000ce4:	69fb      	ldr	r3, [r7, #28]
 8000ce6:	f003 0307 	and.w	r3, r3, #7
 8000cea:	009b      	lsls	r3, r3, #2
 8000cec:	fa02 f303 	lsl.w	r3, r2, r3
 8000cf0:	69ba      	ldr	r2, [r7, #24]
 8000cf2:	4313      	orrs	r3, r2
 8000cf4:	61bb      	str	r3, [r7, #24]
        GPIOx->AFR[position >> 3U] = temp;
 8000cf6:	69fb      	ldr	r3, [r7, #28]
 8000cf8:	08da      	lsrs	r2, r3, #3
 8000cfa:	687b      	ldr	r3, [r7, #4]
 8000cfc:	3208      	adds	r2, #8
 8000cfe:	69b9      	ldr	r1, [r7, #24]
 8000d00:	f843 1022 	str.w	r1, [r3, r2, lsl #2]
      }

      /* Configure IO Direction mode (Input, Output, Alternate or Analog) */
      temp = GPIOx->MODER;
 8000d04:	687b      	ldr	r3, [r7, #4]
 8000d06:	681b      	ldr	r3, [r3, #0]
 8000d08:	61bb      	str	r3, [r7, #24]
      temp &= ~(GPIO_MODER_MODER0 << (position * 2U));
 8000d0a:	69fb      	ldr	r3, [r7, #28]
 8000d0c:	005b      	lsls	r3, r3, #1
 8000d0e:	2203      	movs	r2, #3
 8000d10:	fa02 f303 	lsl.w	r3, r2, r3
 8000d14:	43db      	mvns	r3, r3
 8000d16:	69ba      	ldr	r2, [r7, #24]
 8000d18:	4013      	ands	r3, r2
 8000d1a:	61bb      	str	r3, [r7, #24]
      temp |= ((GPIO_Init->Mode & GPIO_MODE) << (position * 2U));
 8000d1c:	683b      	ldr	r3, [r7, #0]
 8000d1e:	685b      	ldr	r3, [r3, #4]
 8000d20:	f003 0203 	and.w	r2, r3, #3
 8000d24:	69fb      	ldr	r3, [r7, #28]
 8000d26:	005b      	lsls	r3, r3, #1
 8000d28:	fa02 f303 	lsl.w	r3, r2, r3
 8000d2c:	69ba      	ldr	r2, [r7, #24]
 8000d2e:	4313      	orrs	r3, r2
 8000d30:	61bb      	str	r3, [r7, #24]
      GPIOx->MODER = temp;
 8000d32:	687b      	ldr	r3, [r7, #4]
 8000d34:	69ba      	ldr	r2, [r7, #24]
 8000d36:	601a      	str	r2, [r3, #0]

      /*--------------------- EXTI Mode Configuration ------------------------*/
      /* Configure the External Interrupt or event for the current IO */
      if((GPIO_Init->Mode & EXTI_MODE) != 0x00U)
 8000d38:	683b      	ldr	r3, [r7, #0]
 8000d3a:	685b      	ldr	r3, [r3, #4]
 8000d3c:	f403 3340 	and.w	r3, r3, #196608	; 0x30000
 8000d40:	2b00      	cmp	r3, #0
 8000d42:	f000 80a2 	beq.w	8000e8a <HAL_GPIO_Init+0x2ca>
      {
        /* Enable SYSCFG Clock */
        __HAL_RCC_SYSCFG_CLK_ENABLE();
 8000d46:	2300      	movs	r3, #0
 8000d48:	60fb      	str	r3, [r7, #12]
 8000d4a:	4b57      	ldr	r3, [pc, #348]	; (8000ea8 <HAL_GPIO_Init+0x2e8>)
 8000d4c:	6c5b      	ldr	r3, [r3, #68]	; 0x44
 8000d4e:	4a56      	ldr	r2, [pc, #344]	; (8000ea8 <HAL_GPIO_Init+0x2e8>)
 8000d50:	f443 4380 	orr.w	r3, r3, #16384	; 0x4000
 8000d54:	6453      	str	r3, [r2, #68]	; 0x44
 8000d56:	4b54      	ldr	r3, [pc, #336]	; (8000ea8 <HAL_GPIO_Init+0x2e8>)
 8000d58:	6c5b      	ldr	r3, [r3, #68]	; 0x44
 8000d5a:	f403 4380 	and.w	r3, r3, #16384	; 0x4000
 8000d5e:	60fb      	str	r3, [r7, #12]
 8000d60:	68fb      	ldr	r3, [r7, #12]

        temp = SYSCFG->EXTICR[position >> 2U];
 8000d62:	4a52      	ldr	r2, [pc, #328]	; (8000eac <HAL_GPIO_Init+0x2ec>)
 8000d64:	69fb      	ldr	r3, [r7, #28]
 8000d66:	089b      	lsrs	r3, r3, #2
 8000d68:	3302      	adds	r3, #2
 8000d6a:	f852 3023 	ldr.w	r3, [r2, r3, lsl #2]
 8000d6e:	61bb      	str	r3, [r7, #24]
        temp &= ~(0x0FU << (4U * (position & 0x03U)));
 8000d70:	69fb      	ldr	r3, [r7, #28]
 8000d72:	f003 0303 	and.w	r3, r3, #3
 8000d76:	009b      	lsls	r3, r3, #2
 8000d78:	220f      	movs	r2, #15
 8000d7a:	fa02 f303 	lsl.w	r3, r2, r3
 8000d7e:	43db      	mvns	r3, r3
 8000d80:	69ba      	ldr	r2, [r7, #24]
 8000d82:	4013      	ands	r3, r2
 8000d84:	61bb      	str	r3, [r7, #24]
        temp |= ((uint32_t)(GPIO_GET_INDEX(GPIOx)) << (4U * (position & 0x03U)));
 8000d86:	687b      	ldr	r3, [r7, #4]
 8000d88:	4a49      	ldr	r2, [pc, #292]	; (8000eb0 <HAL_GPIO_Init+0x2f0>)
 8000d8a:	4293      	cmp	r3, r2
 8000d8c:	d019      	beq.n	8000dc2 <HAL_GPIO_Init+0x202>
 8000d8e:	687b      	ldr	r3, [r7, #4]
 8000d90:	4a48      	ldr	r2, [pc, #288]	; (8000eb4 <HAL_GPIO_Init+0x2f4>)
 8000d92:	4293      	cmp	r3, r2
 8000d94:	d013      	beq.n	8000dbe <HAL_GPIO_Init+0x1fe>
 8000d96:	687b      	ldr	r3, [r7, #4]
 8000d98:	4a47      	ldr	r2, [pc, #284]	; (8000eb8 <HAL_GPIO_Init+0x2f8>)
 8000d9a:	4293      	cmp	r3, r2
 8000d9c:	d00d      	beq.n	8000dba <HAL_GPIO_Init+0x1fa>
 8000d9e:	687b      	ldr	r3, [r7, #4]
 8000da0:	4a46      	ldr	r2, [pc, #280]	; (8000ebc <HAL_GPIO_Init+0x2fc>)
 8000da2:	4293      	cmp	r3, r2
 8000da4:	d007      	beq.n	8000db6 <HAL_GPIO_Init+0x1f6>
 8000da6:	687b      	ldr	r3, [r7, #4]
 8000da8:	4a45      	ldr	r2, [pc, #276]	; (8000ec0 <HAL_GPIO_Init+0x300>)
 8000daa:	4293      	cmp	r3, r2
 8000dac:	d101      	bne.n	8000db2 <HAL_GPIO_Init+0x1f2>
 8000dae:	2304      	movs	r3, #4
 8000db0:	e008      	b.n	8000dc4 <HAL_GPIO_Init+0x204>
 8000db2:	2307      	movs	r3, #7
 8000db4:	e006      	b.n	8000dc4 <HAL_GPIO_Init+0x204>
 8000db6:	2303      	movs	r3, #3
 8000db8:	e004      	b.n	8000dc4 <HAL_GPIO_Init+0x204>
 8000dba:	2302      	movs	r3, #2
 8000dbc:	e002      	b.n	8000dc4 <HAL_GPIO_Init+0x204>
 8000dbe:	2301      	movs	r3, #1
 8000dc0:	e000      	b.n	8000dc4 <HAL_GPIO_Init+0x204>
 8000dc2:	2300      	movs	r3, #0
 8000dc4:	69fa      	ldr	r2, [r7, #28]
 8000dc6:	f002 0203 	and.w	r2, r2, #3
 8000dca:	0092      	lsls	r2, r2, #2
 8000dcc:	4093      	lsls	r3, r2
 8000dce:	69ba      	ldr	r2, [r7, #24]
 8000dd0:	4313      	orrs	r3, r2
 8000dd2:	61bb      	str	r3, [r7, #24]
        SYSCFG->EXTICR[position >> 2U] = temp;
 8000dd4:	4935      	ldr	r1, [pc, #212]	; (8000eac <HAL_GPIO_Init+0x2ec>)
 8000dd6:	69fb      	ldr	r3, [r7, #28]
 8000dd8:	089b      	lsrs	r3, r3, #2
 8000dda:	3302      	adds	r3, #2
 8000ddc:	69ba      	ldr	r2, [r7, #24]
 8000dde:	f841 2023 	str.w	r2, [r1, r3, lsl #2]

        /* Clear EXTI line configuration */
        temp = EXTI->IMR;
 8000de2:	4b38      	ldr	r3, [pc, #224]	; (8000ec4 <HAL_GPIO_Init+0x304>)
 8000de4:	681b      	ldr	r3, [r3, #0]
 8000de6:	61bb      	str	r3, [r7, #24]
        temp &= ~((uint32_t)iocurrent);
 8000de8:	693b      	ldr	r3, [r7, #16]
 8000dea:	43db      	mvns	r3, r3
 8000dec:	69ba      	ldr	r2, [r7, #24]
 8000dee:	4013      	ands	r3, r2
 8000df0:	61bb      	str	r3, [r7, #24]
        if((GPIO_Init->Mode & EXTI_IT) != 0x00U)
 8000df2:	683b      	ldr	r3, [r7, #0]
 8000df4:	685b      	ldr	r3, [r3, #4]
 8000df6:	f403 3380 	and.w	r3, r3, #65536	; 0x10000
 8000dfa:	2b00      	cmp	r3, #0
 8000dfc:	d003      	beq.n	8000e06 <HAL_GPIO_Init+0x246>
        {
          temp |= iocurrent;
 8000dfe:	69ba      	ldr	r2, [r7, #24]
 8000e00:	693b      	ldr	r3, [r7, #16]
 8000e02:	4313      	orrs	r3, r2
 8000e04:	61bb      	str	r3, [r7, #24]
        }
        EXTI->IMR = temp;
 8000e06:	4a2f      	ldr	r2, [pc, #188]	; (8000ec4 <HAL_GPIO_Init+0x304>)
 8000e08:	69bb      	ldr	r3, [r7, #24]
 8000e0a:	6013      	str	r3, [r2, #0]

        temp = EXTI->EMR;
 8000e0c:	4b2d      	ldr	r3, [pc, #180]	; (8000ec4 <HAL_GPIO_Init+0x304>)
 8000e0e:	685b      	ldr	r3, [r3, #4]
 8000e10:	61bb      	str	r3, [r7, #24]
        temp &= ~((uint32_t)iocurrent);
 8000e12:	693b      	ldr	r3, [r7, #16]
 8000e14:	43db      	mvns	r3, r3
 8000e16:	69ba      	ldr	r2, [r7, #24]
 8000e18:	4013      	ands	r3, r2
 8000e1a:	61bb      	str	r3, [r7, #24]
        if((GPIO_Init->Mode & EXTI_EVT) != 0x00U)
 8000e1c:	683b      	ldr	r3, [r7, #0]
 8000e1e:	685b      	ldr	r3, [r3, #4]
 8000e20:	f403 3300 	and.w	r3, r3, #131072	; 0x20000
 8000e24:	2b00      	cmp	r3, #0
 8000e26:	d003      	beq.n	8000e30 <HAL_GPIO_Init+0x270>
        {
          temp |= iocurrent;
 8000e28:	69ba      	ldr	r2, [r7, #24]
 8000e2a:	693b      	ldr	r3, [r7, #16]
 8000e2c:	4313      	orrs	r3, r2
 8000e2e:	61bb      	str	r3, [r7, #24]
        }
        EXTI->EMR = temp;
 8000e30:	4a24      	ldr	r2, [pc, #144]	; (8000ec4 <HAL_GPIO_Init+0x304>)
 8000e32:	69bb      	ldr	r3, [r7, #24]
 8000e34:	6053      	str	r3, [r2, #4]

        /* Clear Rising Falling edge configuration */
        temp = EXTI->RTSR;
 8000e36:	4b23      	ldr	r3, [pc, #140]	; (8000ec4 <HAL_GPIO_Init+0x304>)
 8000e38:	689b      	ldr	r3, [r3, #8]
 8000e3a:	61bb      	str	r3, [r7, #24]
        temp &= ~((uint32_t)iocurrent);
 8000e3c:	693b      	ldr	r3, [r7, #16]
 8000e3e:	43db      	mvns	r3, r3
 8000e40:	69ba      	ldr	r2, [r7, #24]
 8000e42:	4013      	ands	r3, r2
 8000e44:	61bb      	str	r3, [r7, #24]
        if((GPIO_Init->Mode & TRIGGER_RISING) != 0x00U)
 8000e46:	683b      	ldr	r3, [r7, #0]
 8000e48:	685b      	ldr	r3, [r3, #4]
 8000e4a:	f403 1380 	and.w	r3, r3, #1048576	; 0x100000
 8000e4e:	2b00      	cmp	r3, #0
 8000e50:	d003      	beq.n	8000e5a <HAL_GPIO_Init+0x29a>
        {
          temp |= iocurrent;
 8000e52:	69ba      	ldr	r2, [r7, #24]
 8000e54:	693b      	ldr	r3, [r7, #16]
 8000e56:	4313      	orrs	r3, r2
 8000e58:	61bb      	str	r3, [r7, #24]
        }
        EXTI->RTSR = temp;
 8000e5a:	4a1a      	ldr	r2, [pc, #104]	; (8000ec4 <HAL_GPIO_Init+0x304>)
 8000e5c:	69bb      	ldr	r3, [r7, #24]
 8000e5e:	6093      	str	r3, [r2, #8]

        temp = EXTI->FTSR;
 8000e60:	4b18      	ldr	r3, [pc, #96]	; (8000ec4 <HAL_GPIO_Init+0x304>)
 8000e62:	68db      	ldr	r3, [r3, #12]
 8000e64:	61bb      	str	r3, [r7, #24]
        temp &= ~((uint32_t)iocurrent);
 8000e66:	693b      	ldr	r3, [r7, #16]
 8000e68:	43db      	mvns	r3, r3
 8000e6a:	69ba      	ldr	r2, [r7, #24]
 8000e6c:	4013      	ands	r3, r2
 8000e6e:	61bb      	str	r3, [r7, #24]
        if((GPIO_Init->Mode & TRIGGER_FALLING) != 0x00U)
 8000e70:	683b      	ldr	r3, [r7, #0]
 8000e72:	685b      	ldr	r3, [r3, #4]
 8000e74:	f403 1300 	and.w	r3, r3, #2097152	; 0x200000
 8000e78:	2b00      	cmp	r3, #0
 8000e7a:	d003      	beq.n	8000e84 <HAL_GPIO_Init+0x2c4>
        {
          temp |= iocurrent;
 8000e7c:	69ba      	ldr	r2, [r7, #24]
 8000e7e:	693b      	ldr	r3, [r7, #16]
 8000e80:	4313      	orrs	r3, r2
 8000e82:	61bb      	str	r3, [r7, #24]
        }
        EXTI->FTSR = temp;
 8000e84:	4a0f      	ldr	r2, [pc, #60]	; (8000ec4 <HAL_GPIO_Init+0x304>)
 8000e86:	69bb      	ldr	r3, [r7, #24]
 8000e88:	60d3      	str	r3, [r2, #12]
  for(position = 0U; position < GPIO_NUMBER; position++)
 8000e8a:	69fb      	ldr	r3, [r7, #28]
 8000e8c:	3301      	adds	r3, #1
 8000e8e:	61fb      	str	r3, [r7, #28]
 8000e90:	69fb      	ldr	r3, [r7, #28]
 8000e92:	2b0f      	cmp	r3, #15
 8000e94:	f67f aea2 	bls.w	8000bdc <HAL_GPIO_Init+0x1c>
      }
    }
  }
}
 8000e98:	bf00      	nop
 8000e9a:	bf00      	nop
 8000e9c:	3724      	adds	r7, #36	; 0x24
 8000e9e:	46bd      	mov	sp, r7
 8000ea0:	f85d 7b04 	ldr.w	r7, [sp], #4
 8000ea4:	4770      	bx	lr
 8000ea6:	bf00      	nop
 8000ea8:	40023800 	.word	0x40023800
 8000eac:	40013800 	.word	0x40013800
 8000eb0:	40020000 	.word	0x40020000
 8000eb4:	40020400 	.word	0x40020400
 8000eb8:	40020800 	.word	0x40020800
 8000ebc:	40020c00 	.word	0x40020c00
 8000ec0:	40021000 	.word	0x40021000
 8000ec4:	40013c00 	.word	0x40013c00

08000ec8 <HAL_GPIO_WritePin>:
  *            @arg GPIO_PIN_RESET: to clear the port pin
  *            @arg GPIO_PIN_SET: to set the port pin
  * @retval None
  */
void HAL_GPIO_WritePin(GPIO_TypeDef* GPIOx, uint16_t GPIO_Pin, GPIO_PinState PinState)
{
 8000ec8:	b480      	push	{r7}
 8000eca:	b083      	sub	sp, #12
 8000ecc:	af00      	add	r7, sp, #0
 8000ece:	6078      	str	r0, [r7, #4]
 8000ed0:	460b      	mov	r3, r1
 8000ed2:	807b      	strh	r3, [r7, #2]
 8000ed4:	4613      	mov	r3, r2
 8000ed6:	707b      	strb	r3, [r7, #1]
  /* Check the parameters */
  assert_param(IS_GPIO_PIN(GPIO_Pin));
  assert_param(IS_GPIO_PIN_ACTION(PinState));

  if(PinState != GPIO_PIN_RESET)
 8000ed8:	787b      	ldrb	r3, [r7, #1]
 8000eda:	2b00      	cmp	r3, #0
 8000edc:	d003      	beq.n	8000ee6 <HAL_GPIO_WritePin+0x1e>
  {
    GPIOx->BSRR = GPIO_Pin;
 8000ede:	887a      	ldrh	r2, [r7, #2]
 8000ee0:	687b      	ldr	r3, [r7, #4]
 8000ee2:	619a      	str	r2, [r3, #24]
  }
  else
  {
    GPIOx->BSRR = (uint32_t)GPIO_Pin << 16U;
  }
}
 8000ee4:	e003      	b.n	8000eee <HAL_GPIO_WritePin+0x26>
    GPIOx->BSRR = (uint32_t)GPIO_Pin << 16U;
 8000ee6:	887b      	ldrh	r3, [r7, #2]
 8000ee8:	041a      	lsls	r2, r3, #16
 8000eea:	687b      	ldr	r3, [r7, #4]
 8000eec:	619a      	str	r2, [r3, #24]
}
 8000eee:	bf00      	nop
 8000ef0:	370c      	adds	r7, #12
 8000ef2:	46bd      	mov	sp, r7
 8000ef4:	f85d 7b04 	ldr.w	r7, [sp], #4
 8000ef8:	4770      	bx	lr

08000efa <HAL_GPIO_TogglePin>:
  *                      x can be (A..I) to select the GPIO peripheral for STM32F40XX and STM32F427X devices.
  * @param  GPIO_Pin Specifies the pins to be toggled.
  * @retval None
  */
void HAL_GPIO_TogglePin(GPIO_TypeDef* GPIOx, uint16_t GPIO_Pin)
{
 8000efa:	b480      	push	{r7}
 8000efc:	b085      	sub	sp, #20
 8000efe:	af00      	add	r7, sp, #0
 8000f00:	6078      	str	r0, [r7, #4]
 8000f02:	460b      	mov	r3, r1
 8000f04:	807b      	strh	r3, [r7, #2]

  /* Check the parameters */
  assert_param(IS_GPIO_PIN(GPIO_Pin));

  /* get current Ouput Data Register value */
  odr = GPIOx->ODR;
 8000f06:	687b      	ldr	r3, [r7, #4]
 8000f08:	695b      	ldr	r3, [r3, #20]
 8000f0a:	60fb      	str	r3, [r7, #12]

  /* Set selected pins that were at low level, and reset ones that were high */
  GPIOx->BSRR = ((odr & GPIO_Pin) << GPIO_NUMBER) | (~odr & GPIO_Pin);
 8000f0c:	887a      	ldrh	r2, [r7, #2]
 8000f0e:	68fb      	ldr	r3, [r7, #12]
 8000f10:	4013      	ands	r3, r2
 8000f12:	041a      	lsls	r2, r3, #16
 8000f14:	68fb      	ldr	r3, [r7, #12]
 8000f16:	43d9      	mvns	r1, r3
 8000f18:	887b      	ldrh	r3, [r7, #2]
 8000f1a:	400b      	ands	r3, r1
 8000f1c:	431a      	orrs	r2, r3
 8000f1e:	687b      	ldr	r3, [r7, #4]
 8000f20:	619a      	str	r2, [r3, #24]
}
 8000f22:	bf00      	nop
 8000f24:	3714      	adds	r7, #20
 8000f26:	46bd      	mov	sp, r7
 8000f28:	f85d 7b04 	ldr.w	r7, [sp], #4
 8000f2c:	4770      	bx	lr
	...

08000f30 <HAL_I2C_Init>:
  * @param  hi2c Pointer to a I2C_HandleTypeDef structure that contains
  *                the configuration information for the specified I2C.
  * @retval HAL status
  */
HAL_StatusTypeDef HAL_I2C_Init(I2C_HandleTypeDef *hi2c)
{
 8000f30:	b580      	push	{r7, lr}
 8000f32:	b084      	sub	sp, #16
 8000f34:	af00      	add	r7, sp, #0
 8000f36:	6078      	str	r0, [r7, #4]
  uint32_t freqrange;
  uint32_t pclk1;

  /* Check the I2C handle allocation */
  if (hi2c == NULL)
 8000f38:	687b      	ldr	r3, [r7, #4]
 8000f3a:	2b00      	cmp	r3, #0
 8000f3c:	d101      	bne.n	8000f42 <HAL_I2C_Init+0x12>
  {
    return HAL_ERROR;
 8000f3e:	2301      	movs	r3, #1
 8000f40:	e12b      	b.n	800119a <HAL_I2C_Init+0x26a>
  assert_param(IS_I2C_DUAL_ADDRESS(hi2c->Init.DualAddressMode));
  assert_param(IS_I2C_OWN_ADDRESS2(hi2c->Init.OwnAddress2));
  assert_param(IS_I2C_GENERAL_CALL(hi2c->Init.GeneralCallMode));
  assert_param(IS_I2C_NO_STRETCH(hi2c->Init.NoStretchMode));

  if (hi2c->State == HAL_I2C_STATE_RESET)
 8000f42:	687b      	ldr	r3, [r7, #4]
 8000f44:	f893 303d 	ldrb.w	r3, [r3, #61]	; 0x3d
 8000f48:	b2db      	uxtb	r3, r3
 8000f4a:	2b00      	cmp	r3, #0
 8000f4c:	d106      	bne.n	8000f5c <HAL_I2C_Init+0x2c>
  {
    /* Allocate lock resource and initialize it */
    hi2c->Lock = HAL_UNLOCKED;
 8000f4e:	687b      	ldr	r3, [r7, #4]
 8000f50:	2200      	movs	r2, #0
 8000f52:	f883 203c 	strb.w	r2, [r3, #60]	; 0x3c

    /* Init the low level hardware : GPIO, CLOCK, NVIC */
    hi2c->MspInitCallback(hi2c);
#else
    /* Init the low level hardware : GPIO, CLOCK, NVIC */
    HAL_I2C_MspInit(hi2c);
 8000f56:	6878      	ldr	r0, [r7, #4]
 8000f58:	f7ff fb46 	bl	80005e8 <HAL_I2C_MspInit>
#endif /* USE_HAL_I2C_REGISTER_CALLBACKS */
  }

  hi2c->State = HAL_I2C_STATE_BUSY;
 8000f5c:	687b      	ldr	r3, [r7, #4]
 8000f5e:	2224      	movs	r2, #36	; 0x24
 8000f60:	f883 203d 	strb.w	r2, [r3, #61]	; 0x3d

  /* Disable the selected I2C peripheral */
  __HAL_I2C_DISABLE(hi2c);
 8000f64:	687b      	ldr	r3, [r7, #4]
 8000f66:	681b      	ldr	r3, [r3, #0]
 8000f68:	681a      	ldr	r2, [r3, #0]
 8000f6a:	687b      	ldr	r3, [r7, #4]
 8000f6c:	681b      	ldr	r3, [r3, #0]
 8000f6e:	f022 0201 	bic.w	r2, r2, #1
 8000f72:	601a      	str	r2, [r3, #0]

  /*Reset I2C*/
  hi2c->Instance->CR1 |= I2C_CR1_SWRST;
 8000f74:	687b      	ldr	r3, [r7, #4]
 8000f76:	681b      	ldr	r3, [r3, #0]
 8000f78:	681a      	ldr	r2, [r3, #0]
 8000f7a:	687b      	ldr	r3, [r7, #4]
 8000f7c:	681b      	ldr	r3, [r3, #0]
 8000f7e:	f442 4200 	orr.w	r2, r2, #32768	; 0x8000
 8000f82:	601a      	str	r2, [r3, #0]
  hi2c->Instance->CR1 &= ~I2C_CR1_SWRST;
 8000f84:	687b      	ldr	r3, [r7, #4]
 8000f86:	681b      	ldr	r3, [r3, #0]
 8000f88:	681a      	ldr	r2, [r3, #0]
 8000f8a:	687b      	ldr	r3, [r7, #4]
 8000f8c:	681b      	ldr	r3, [r3, #0]
 8000f8e:	f422 4200 	bic.w	r2, r2, #32768	; 0x8000
 8000f92:	601a      	str	r2, [r3, #0]

  /* Get PCLK1 frequency */
  pclk1 = HAL_RCC_GetPCLK1Freq();
 8000f94:	f001 f9da 	bl	800234c <HAL_RCC_GetPCLK1Freq>
 8000f98:	60f8      	str	r0, [r7, #12]

  /* Check the minimum allowed PCLK1 frequency */
  if (I2C_MIN_PCLK_FREQ(pclk1, hi2c->Init.ClockSpeed) == 1U)
 8000f9a:	687b      	ldr	r3, [r7, #4]
 8000f9c:	685b      	ldr	r3, [r3, #4]
 8000f9e:	4a81      	ldr	r2, [pc, #516]	; (80011a4 <HAL_I2C_Init+0x274>)
 8000fa0:	4293      	cmp	r3, r2
 8000fa2:	d807      	bhi.n	8000fb4 <HAL_I2C_Init+0x84>
 8000fa4:	68fb      	ldr	r3, [r7, #12]
 8000fa6:	4a80      	ldr	r2, [pc, #512]	; (80011a8 <HAL_I2C_Init+0x278>)
 8000fa8:	4293      	cmp	r3, r2
 8000faa:	bf94      	ite	ls
 8000fac:	2301      	movls	r3, #1
 8000fae:	2300      	movhi	r3, #0
 8000fb0:	b2db      	uxtb	r3, r3
 8000fb2:	e006      	b.n	8000fc2 <HAL_I2C_Init+0x92>
 8000fb4:	68fb      	ldr	r3, [r7, #12]
 8000fb6:	4a7d      	ldr	r2, [pc, #500]	; (80011ac <HAL_I2C_Init+0x27c>)
 8000fb8:	4293      	cmp	r3, r2
 8000fba:	bf94      	ite	ls
 8000fbc:	2301      	movls	r3, #1
 8000fbe:	2300      	movhi	r3, #0
 8000fc0:	b2db      	uxtb	r3, r3
 8000fc2:	2b00      	cmp	r3, #0
 8000fc4:	d001      	beq.n	8000fca <HAL_I2C_Init+0x9a>
  {
    return HAL_ERROR;
 8000fc6:	2301      	movs	r3, #1
 8000fc8:	e0e7      	b.n	800119a <HAL_I2C_Init+0x26a>
  }

  /* Calculate frequency range */
  freqrange = I2C_FREQRANGE(pclk1);
 8000fca:	68fb      	ldr	r3, [r7, #12]
 8000fcc:	4a78      	ldr	r2, [pc, #480]	; (80011b0 <HAL_I2C_Init+0x280>)
 8000fce:	fba2 2303 	umull	r2, r3, r2, r3
 8000fd2:	0c9b      	lsrs	r3, r3, #18
 8000fd4:	60bb      	str	r3, [r7, #8]

  /*---------------------------- I2Cx CR2 Configuration ----------------------*/
  /* Configure I2Cx: Frequency range */
  MODIFY_REG(hi2c->Instance->CR2, I2C_CR2_FREQ, freqrange);
 8000fd6:	687b      	ldr	r3, [r7, #4]
 8000fd8:	681b      	ldr	r3, [r3, #0]
 8000fda:	685b      	ldr	r3, [r3, #4]
 8000fdc:	f023 013f 	bic.w	r1, r3, #63	; 0x3f
 8000fe0:	687b      	ldr	r3, [r7, #4]
 8000fe2:	681b      	ldr	r3, [r3, #0]
 8000fe4:	68ba      	ldr	r2, [r7, #8]
 8000fe6:	430a      	orrs	r2, r1
 8000fe8:	605a      	str	r2, [r3, #4]

  /*---------------------------- I2Cx TRISE Configuration --------------------*/
  /* Configure I2Cx: Rise Time */
  MODIFY_REG(hi2c->Instance->TRISE, I2C_TRISE_TRISE, I2C_RISE_TIME(freqrange, hi2c->Init.ClockSpeed));
 8000fea:	687b      	ldr	r3, [r7, #4]
 8000fec:	681b      	ldr	r3, [r3, #0]
 8000fee:	6a1b      	ldr	r3, [r3, #32]
 8000ff0:	f023 013f 	bic.w	r1, r3, #63	; 0x3f
 8000ff4:	687b      	ldr	r3, [r7, #4]
 8000ff6:	685b      	ldr	r3, [r3, #4]
 8000ff8:	4a6a      	ldr	r2, [pc, #424]	; (80011a4 <HAL_I2C_Init+0x274>)
 8000ffa:	4293      	cmp	r3, r2
 8000ffc:	d802      	bhi.n	8001004 <HAL_I2C_Init+0xd4>
 8000ffe:	68bb      	ldr	r3, [r7, #8]
 8001000:	3301      	adds	r3, #1
 8001002:	e009      	b.n	8001018 <HAL_I2C_Init+0xe8>
 8001004:	68bb      	ldr	r3, [r7, #8]
 8001006:	f44f 7296 	mov.w	r2, #300	; 0x12c
 800100a:	fb02 f303 	mul.w	r3, r2, r3
 800100e:	4a69      	ldr	r2, [pc, #420]	; (80011b4 <HAL_I2C_Init+0x284>)
 8001010:	fba2 2303 	umull	r2, r3, r2, r3
 8001014:	099b      	lsrs	r3, r3, #6
 8001016:	3301      	adds	r3, #1
 8001018:	687a      	ldr	r2, [r7, #4]
 800101a:	6812      	ldr	r2, [r2, #0]
 800101c:	430b      	orrs	r3, r1
 800101e:	6213      	str	r3, [r2, #32]

  /*---------------------------- I2Cx CCR Configuration ----------------------*/
  /* Configure I2Cx: Speed */
  MODIFY_REG(hi2c->Instance->CCR, (I2C_CCR_FS | I2C_CCR_DUTY | I2C_CCR_CCR), I2C_SPEED(pclk1, hi2c->Init.ClockSpeed, hi2c->Init.DutyCycle));
 8001020:	687b      	ldr	r3, [r7, #4]
 8001022:	681b      	ldr	r3, [r3, #0]
 8001024:	69db      	ldr	r3, [r3, #28]
 8001026:	f423 424f 	bic.w	r2, r3, #52992	; 0xcf00
 800102a:	f022 02ff 	bic.w	r2, r2, #255	; 0xff
 800102e:	687b      	ldr	r3, [r7, #4]
 8001030:	685b      	ldr	r3, [r3, #4]
 8001032:	495c      	ldr	r1, [pc, #368]	; (80011a4 <HAL_I2C_Init+0x274>)
 8001034:	428b      	cmp	r3, r1
 8001036:	d819      	bhi.n	800106c <HAL_I2C_Init+0x13c>
 8001038:	68fb      	ldr	r3, [r7, #12]
 800103a:	1e59      	subs	r1, r3, #1
 800103c:	687b      	ldr	r3, [r7, #4]
 800103e:	685b      	ldr	r3, [r3, #4]
 8001040:	005b      	lsls	r3, r3, #1
 8001042:	fbb1 f3f3 	udiv	r3, r1, r3
 8001046:	1c59      	adds	r1, r3, #1
 8001048:	f640 73fc 	movw	r3, #4092	; 0xffc
 800104c:	400b      	ands	r3, r1
 800104e:	2b00      	cmp	r3, #0
 8001050:	d00a      	beq.n	8001068 <HAL_I2C_Init+0x138>
 8001052:	68fb      	ldr	r3, [r7, #12]
 8001054:	1e59      	subs	r1, r3, #1
 8001056:	687b      	ldr	r3, [r7, #4]
 8001058:	685b      	ldr	r3, [r3, #4]
 800105a:	005b      	lsls	r3, r3, #1
 800105c:	fbb1 f3f3 	udiv	r3, r1, r3
 8001060:	3301      	adds	r3, #1
 8001062:	f3c3 030b 	ubfx	r3, r3, #0, #12
 8001066:	e051      	b.n	800110c <HAL_I2C_Init+0x1dc>
 8001068:	2304      	movs	r3, #4
 800106a:	e04f      	b.n	800110c <HAL_I2C_Init+0x1dc>
 800106c:	687b      	ldr	r3, [r7, #4]
 800106e:	689b      	ldr	r3, [r3, #8]
 8001070:	2b00      	cmp	r3, #0
 8001072:	d111      	bne.n	8001098 <HAL_I2C_Init+0x168>
 8001074:	68fb      	ldr	r3, [r7, #12]
 8001076:	1e58      	subs	r0, r3, #1
 8001078:	687b      	ldr	r3, [r7, #4]
 800107a:	6859      	ldr	r1, [r3, #4]
 800107c:	460b      	mov	r3, r1
 800107e:	005b      	lsls	r3, r3, #1
 8001080:	440b      	add	r3, r1
 8001082:	fbb0 f3f3 	udiv	r3, r0, r3
 8001086:	3301      	adds	r3, #1
 8001088:	f3c3 030b 	ubfx	r3, r3, #0, #12
 800108c:	2b00      	cmp	r3, #0
 800108e:	bf0c      	ite	eq
 8001090:	2301      	moveq	r3, #1
 8001092:	2300      	movne	r3, #0
 8001094:	b2db      	uxtb	r3, r3
 8001096:	e012      	b.n	80010be <HAL_I2C_Init+0x18e>
 8001098:	68fb      	ldr	r3, [r7, #12]
 800109a:	1e58      	subs	r0, r3, #1
 800109c:	687b      	ldr	r3, [r7, #4]
 800109e:	6859      	ldr	r1, [r3, #4]
 80010a0:	460b      	mov	r3, r1
 80010a2:	009b      	lsls	r3, r3, #2
 80010a4:	440b      	add	r3, r1
 80010a6:	0099      	lsls	r1, r3, #2
 80010a8:	440b      	add	r3, r1
 80010aa:	fbb0 f3f3 	udiv	r3, r0, r3
 80010ae:	3301      	adds	r3, #1
 80010b0:	f3c3 030b 	ubfx	r3, r3, #0, #12
 80010b4:	2b00      	cmp	r3, #0
 80010b6:	bf0c      	ite	eq
 80010b8:	2301      	moveq	r3, #1
 80010ba:	2300      	movne	r3, #0
 80010bc:	b2db      	uxtb	r3, r3
 80010be:	2b00      	cmp	r3, #0
 80010c0:	d001      	beq.n	80010c6 <HAL_I2C_Init+0x196>
 80010c2:	2301      	movs	r3, #1
 80010c4:	e022      	b.n	800110c <HAL_I2C_Init+0x1dc>
 80010c6:	687b      	ldr	r3, [r7, #4]
 80010c8:	689b      	ldr	r3, [r3, #8]
 80010ca:	2b00      	cmp	r3, #0
 80010cc:	d10e      	bne.n	80010ec <HAL_I2C_Init+0x1bc>
 80010ce:	68fb      	ldr	r3, [r7, #12]
 80010d0:	1e58      	subs	r0, r3, #1
 80010d2:	687b      	ldr	r3, [r7, #4]
 80010d4:	6859      	ldr	r1, [r3, #4]
 80010d6:	460b      	mov	r3, r1
 80010d8:	005b      	lsls	r3, r3, #1
 80010da:	440b      	add	r3, r1
 80010dc:	fbb0 f3f3 	udiv	r3, r0, r3
 80010e0:	3301      	adds	r3, #1
 80010e2:	f3c3 030b 	ubfx	r3, r3, #0, #12
 80010e6:	f443 4300 	orr.w	r3, r3, #32768	; 0x8000
 80010ea:	e00f      	b.n	800110c <HAL_I2C_Init+0x1dc>
 80010ec:	68fb      	ldr	r3, [r7, #12]
 80010ee:	1e58      	subs	r0, r3, #1
 80010f0:	687b      	ldr	r3, [r7, #4]
 80010f2:	6859      	ldr	r1, [r3, #4]
 80010f4:	460b      	mov	r3, r1
 80010f6:	009b      	lsls	r3, r3, #2
 80010f8:	440b      	add	r3, r1
 80010fa:	0099      	lsls	r1, r3, #2
 80010fc:	440b      	add	r3, r1
 80010fe:	fbb0 f3f3 	udiv	r3, r0, r3
 8001102:	3301      	adds	r3, #1
 8001104:	f3c3 030b 	ubfx	r3, r3, #0, #12
 8001108:	f443 4340 	orr.w	r3, r3, #49152	; 0xc000
 800110c:	6879      	ldr	r1, [r7, #4]
 800110e:	6809      	ldr	r1, [r1, #0]
 8001110:	4313      	orrs	r3, r2
 8001112:	61cb      	str	r3, [r1, #28]

  /*---------------------------- I2Cx CR1 Configuration ----------------------*/
  /* Configure I2Cx: Generalcall and NoStretch mode */
  MODIFY_REG(hi2c->Instance->CR1, (I2C_CR1_ENGC | I2C_CR1_NOSTRETCH), (hi2c->Init.GeneralCallMode | hi2c->Init.NoStretchMode));
 8001114:	687b      	ldr	r3, [r7, #4]
 8001116:	681b      	ldr	r3, [r3, #0]
 8001118:	681b      	ldr	r3, [r3, #0]
 800111a:	f023 01c0 	bic.w	r1, r3, #192	; 0xc0
 800111e:	687b      	ldr	r3, [r7, #4]
 8001120:	69da      	ldr	r2, [r3, #28]
 8001122:	687b      	ldr	r3, [r7, #4]
 8001124:	6a1b      	ldr	r3, [r3, #32]
 8001126:	431a      	orrs	r2, r3
 8001128:	687b      	ldr	r3, [r7, #4]
 800112a:	681b      	ldr	r3, [r3, #0]
 800112c:	430a      	orrs	r2, r1
 800112e:	601a      	str	r2, [r3, #0]

  /*---------------------------- I2Cx OAR1 Configuration ---------------------*/
  /* Configure I2Cx: Own Address1 and addressing mode */
  MODIFY_REG(hi2c->Instance->OAR1, (I2C_OAR1_ADDMODE | I2C_OAR1_ADD8_9 | I2C_OAR1_ADD1_7 | I2C_OAR1_ADD0), (hi2c->Init.AddressingMode | hi2c->Init.OwnAddress1));
 8001130:	687b      	ldr	r3, [r7, #4]
 8001132:	681b      	ldr	r3, [r3, #0]
 8001134:	689b      	ldr	r3, [r3, #8]
 8001136:	f423 4303 	bic.w	r3, r3, #33536	; 0x8300
 800113a:	f023 03ff 	bic.w	r3, r3, #255	; 0xff
 800113e:	687a      	ldr	r2, [r7, #4]
 8001140:	6911      	ldr	r1, [r2, #16]
 8001142:	687a      	ldr	r2, [r7, #4]
 8001144:	68d2      	ldr	r2, [r2, #12]
 8001146:	4311      	orrs	r1, r2
 8001148:	687a      	ldr	r2, [r7, #4]
 800114a:	6812      	ldr	r2, [r2, #0]
 800114c:	430b      	orrs	r3, r1
 800114e:	6093      	str	r3, [r2, #8]

  /*---------------------------- I2Cx OAR2 Configuration ---------------------*/
  /* Configure I2Cx: Dual mode and Own Address2 */
  MODIFY_REG(hi2c->Instance->OAR2, (I2C_OAR2_ENDUAL | I2C_OAR2_ADD2), (hi2c->Init.DualAddressMode | hi2c->Init.OwnAddress2));
 8001150:	687b      	ldr	r3, [r7, #4]
 8001152:	681b      	ldr	r3, [r3, #0]
 8001154:	68db      	ldr	r3, [r3, #12]
 8001156:	f023 01ff 	bic.w	r1, r3, #255	; 0xff
 800115a:	687b      	ldr	r3, [r7, #4]
 800115c:	695a      	ldr	r2, [r3, #20]
 800115e:	687b      	ldr	r3, [r7, #4]
 8001160:	699b      	ldr	r3, [r3, #24]
 8001162:	431a      	orrs	r2, r3
 8001164:	687b      	ldr	r3, [r7, #4]
 8001166:	681b      	ldr	r3, [r3, #0]
 8001168:	430a      	orrs	r2, r1
 800116a:	60da      	str	r2, [r3, #12]

  /* Enable the selected I2C peripheral */
  __HAL_I2C_ENABLE(hi2c);
 800116c:	687b      	ldr	r3, [r7, #4]
 800116e:	681b      	ldr	r3, [r3, #0]
 8001170:	681a      	ldr	r2, [r3, #0]
 8001172:	687b      	ldr	r3, [r7, #4]
 8001174:	681b      	ldr	r3, [r3, #0]
 8001176:	f042 0201 	orr.w	r2, r2, #1
 800117a:	601a      	str	r2, [r3, #0]

  hi2c->ErrorCode = HAL_I2C_ERROR_NONE;
 800117c:	687b      	ldr	r3, [r7, #4]
 800117e:	2200      	movs	r2, #0
 8001180:	641a      	str	r2, [r3, #64]	; 0x40
  hi2c->State = HAL_I2C_STATE_READY;
 8001182:	687b      	ldr	r3, [r7, #4]
 8001184:	2220      	movs	r2, #32
 8001186:	f883 203d 	strb.w	r2, [r3, #61]	; 0x3d
  hi2c->PreviousState = I2C_STATE_NONE;
 800118a:	687b      	ldr	r3, [r7, #4]
 800118c:	2200      	movs	r2, #0
 800118e:	631a      	str	r2, [r3, #48]	; 0x30
  hi2c->Mode = HAL_I2C_MODE_NONE;
 8001190:	687b      	ldr	r3, [r7, #4]
 8001192:	2200      	movs	r2, #0
 8001194:	f883 203e 	strb.w	r2, [r3, #62]	; 0x3e

  return HAL_OK;
 8001198:	2300      	movs	r3, #0
}
 800119a:	4618      	mov	r0, r3
 800119c:	3710      	adds	r7, #16
 800119e:	46bd      	mov	sp, r7
 80011a0:	bd80      	pop	{r7, pc}
 80011a2:	bf00      	nop
 80011a4:	000186a0 	.word	0x000186a0
 80011a8:	001e847f 	.word	0x001e847f
 80011ac:	003d08ff 	.word	0x003d08ff
 80011b0:	431bde83 	.word	0x431bde83
 80011b4:	10624dd3 	.word	0x10624dd3

080011b8 <HAL_I2C_Mem_Read>:
  * @param  Size Amount of data to be sent
  * @param  Timeout Timeout duration
  * @retval HAL status
  */
HAL_StatusTypeDef HAL_I2C_Mem_Read(I2C_HandleTypeDef *hi2c, uint16_t DevAddress, uint16_t MemAddress, uint16_t MemAddSize, uint8_t *pData, uint16_t Size, uint32_t Timeout)
{
 80011b8:	b580      	push	{r7, lr}
 80011ba:	b08c      	sub	sp, #48	; 0x30
 80011bc:	af02      	add	r7, sp, #8
 80011be:	60f8      	str	r0, [r7, #12]
 80011c0:	4608      	mov	r0, r1
 80011c2:	4611      	mov	r1, r2
 80011c4:	461a      	mov	r2, r3
 80011c6:	4603      	mov	r3, r0
 80011c8:	817b      	strh	r3, [r7, #10]
 80011ca:	460b      	mov	r3, r1
 80011cc:	813b      	strh	r3, [r7, #8]
 80011ce:	4613      	mov	r3, r2
 80011d0:	80fb      	strh	r3, [r7, #6]
  /* Init tickstart for timeout management*/
  uint32_t tickstart = HAL_GetTick();
 80011d2:	f7ff fbdf 	bl	8000994 <HAL_GetTick>
 80011d6:	6278      	str	r0, [r7, #36]	; 0x24

  /* Check the parameters */
  assert_param(IS_I2C_MEMADD_SIZE(MemAddSize));

  if (hi2c->State == HAL_I2C_STATE_READY)
 80011d8:	68fb      	ldr	r3, [r7, #12]
 80011da:	f893 303d 	ldrb.w	r3, [r3, #61]	; 0x3d
 80011de:	b2db      	uxtb	r3, r3
 80011e0:	2b20      	cmp	r3, #32
 80011e2:	f040 8208 	bne.w	80015f6 <HAL_I2C_Mem_Read+0x43e>
  {
    /* Wait until BUSY flag is reset */
    if (I2C_WaitOnFlagUntilTimeout(hi2c, I2C_FLAG_BUSY, SET, I2C_TIMEOUT_BUSY_FLAG, tickstart) != HAL_OK)
 80011e6:	6a7b      	ldr	r3, [r7, #36]	; 0x24
 80011e8:	9300      	str	r3, [sp, #0]
 80011ea:	2319      	movs	r3, #25
 80011ec:	2201      	movs	r2, #1
 80011ee:	497b      	ldr	r1, [pc, #492]	; (80013dc <HAL_I2C_Mem_Read+0x224>)
 80011f0:	68f8      	ldr	r0, [r7, #12]
 80011f2:	f000 faef 	bl	80017d4 <I2C_WaitOnFlagUntilTimeout>
 80011f6:	4603      	mov	r3, r0
 80011f8:	2b00      	cmp	r3, #0
 80011fa:	d001      	beq.n	8001200 <HAL_I2C_Mem_Read+0x48>
    {
      return HAL_BUSY;
 80011fc:	2302      	movs	r3, #2
 80011fe:	e1fb      	b.n	80015f8 <HAL_I2C_Mem_Read+0x440>
    }

    /* Process Locked */
    __HAL_LOCK(hi2c);
 8001200:	68fb      	ldr	r3, [r7, #12]
 8001202:	f893 303c 	ldrb.w	r3, [r3, #60]	; 0x3c
 8001206:	2b01      	cmp	r3, #1
 8001208:	d101      	bne.n	800120e <HAL_I2C_Mem_Read+0x56>
 800120a:	2302      	movs	r3, #2
 800120c:	e1f4      	b.n	80015f8 <HAL_I2C_Mem_Read+0x440>
 800120e:	68fb      	ldr	r3, [r7, #12]
 8001210:	2201      	movs	r2, #1
 8001212:	f883 203c 	strb.w	r2, [r3, #60]	; 0x3c

    /* Check if the I2C is already enabled */
    if ((hi2c->Instance->CR1 & I2C_CR1_PE) != I2C_CR1_PE)
 8001216:	68fb      	ldr	r3, [r7, #12]
 8001218:	681b      	ldr	r3, [r3, #0]
 800121a:	681b      	ldr	r3, [r3, #0]
 800121c:	f003 0301 	and.w	r3, r3, #1
 8001220:	2b01      	cmp	r3, #1
 8001222:	d007      	beq.n	8001234 <HAL_I2C_Mem_Read+0x7c>
    {
      /* Enable I2C peripheral */
      __HAL_I2C_ENABLE(hi2c);
 8001224:	68fb      	ldr	r3, [r7, #12]
 8001226:	681b      	ldr	r3, [r3, #0]
 8001228:	681a      	ldr	r2, [r3, #0]
 800122a:	68fb      	ldr	r3, [r7, #12]
 800122c:	681b      	ldr	r3, [r3, #0]
 800122e:	f042 0201 	orr.w	r2, r2, #1
 8001232:	601a      	str	r2, [r3, #0]
    }

    /* Disable Pos */
    CLEAR_BIT(hi2c->Instance->CR1, I2C_CR1_POS);
 8001234:	68fb      	ldr	r3, [r7, #12]
 8001236:	681b      	ldr	r3, [r3, #0]
 8001238:	681a      	ldr	r2, [r3, #0]
 800123a:	68fb      	ldr	r3, [r7, #12]
 800123c:	681b      	ldr	r3, [r3, #0]
 800123e:	f422 6200 	bic.w	r2, r2, #2048	; 0x800
 8001242:	601a      	str	r2, [r3, #0]

    hi2c->State     = HAL_I2C_STATE_BUSY_RX;
 8001244:	68fb      	ldr	r3, [r7, #12]
 8001246:	2222      	movs	r2, #34	; 0x22
 8001248:	f883 203d 	strb.w	r2, [r3, #61]	; 0x3d
    hi2c->Mode      = HAL_I2C_MODE_MEM;
 800124c:	68fb      	ldr	r3, [r7, #12]
 800124e:	2240      	movs	r2, #64	; 0x40
 8001250:	f883 203e 	strb.w	r2, [r3, #62]	; 0x3e
    hi2c->ErrorCode = HAL_I2C_ERROR_NONE;
 8001254:	68fb      	ldr	r3, [r7, #12]
 8001256:	2200      	movs	r2, #0
 8001258:	641a      	str	r2, [r3, #64]	; 0x40

    /* Prepare transfer parameters */
    hi2c->pBuffPtr    = pData;
 800125a:	68fb      	ldr	r3, [r7, #12]
 800125c:	6b3a      	ldr	r2, [r7, #48]	; 0x30
 800125e:	625a      	str	r2, [r3, #36]	; 0x24
    hi2c->XferCount   = Size;
 8001260:	68fb      	ldr	r3, [r7, #12]
 8001262:	8eba      	ldrh	r2, [r7, #52]	; 0x34
 8001264:	855a      	strh	r2, [r3, #42]	; 0x2a
    hi2c->XferSize    = hi2c->XferCount;
 8001266:	68fb      	ldr	r3, [r7, #12]
 8001268:	8d5b      	ldrh	r3, [r3, #42]	; 0x2a
 800126a:	b29a      	uxth	r2, r3
 800126c:	68fb      	ldr	r3, [r7, #12]
 800126e:	851a      	strh	r2, [r3, #40]	; 0x28
    hi2c->XferOptions = I2C_NO_OPTION_FRAME;
 8001270:	68fb      	ldr	r3, [r7, #12]
 8001272:	4a5b      	ldr	r2, [pc, #364]	; (80013e0 <HAL_I2C_Mem_Read+0x228>)
 8001274:	62da      	str	r2, [r3, #44]	; 0x2c

    /* Send Slave Address and Memory Address */
    if (I2C_RequestMemoryRead(hi2c, DevAddress, MemAddress, MemAddSize, Timeout, tickstart) != HAL_OK)
 8001276:	88f8      	ldrh	r0, [r7, #6]
 8001278:	893a      	ldrh	r2, [r7, #8]
 800127a:	8979      	ldrh	r1, [r7, #10]
 800127c:	6a7b      	ldr	r3, [r7, #36]	; 0x24
 800127e:	9301      	str	r3, [sp, #4]
 8001280:	6bbb      	ldr	r3, [r7, #56]	; 0x38
 8001282:	9300      	str	r3, [sp, #0]
 8001284:	4603      	mov	r3, r0
 8001286:	68f8      	ldr	r0, [r7, #12]
 8001288:	f000 f9bc 	bl	8001604 <I2C_RequestMemoryRead>
 800128c:	4603      	mov	r3, r0
 800128e:	2b00      	cmp	r3, #0
 8001290:	d001      	beq.n	8001296 <HAL_I2C_Mem_Read+0xde>
    {
      return HAL_ERROR;
 8001292:	2301      	movs	r3, #1
 8001294:	e1b0      	b.n	80015f8 <HAL_I2C_Mem_Read+0x440>
    }

    if (hi2c->XferSize == 0U)
 8001296:	68fb      	ldr	r3, [r7, #12]
 8001298:	8d1b      	ldrh	r3, [r3, #40]	; 0x28
 800129a:	2b00      	cmp	r3, #0
 800129c:	d113      	bne.n	80012c6 <HAL_I2C_Mem_Read+0x10e>
    {
      /* Clear ADDR flag */
      __HAL_I2C_CLEAR_ADDRFLAG(hi2c);
 800129e:	2300      	movs	r3, #0
 80012a0:	623b      	str	r3, [r7, #32]
 80012a2:	68fb      	ldr	r3, [r7, #12]
 80012a4:	681b      	ldr	r3, [r3, #0]
 80012a6:	695b      	ldr	r3, [r3, #20]
 80012a8:	623b      	str	r3, [r7, #32]
 80012aa:	68fb      	ldr	r3, [r7, #12]
 80012ac:	681b      	ldr	r3, [r3, #0]
 80012ae:	699b      	ldr	r3, [r3, #24]
 80012b0:	623b      	str	r3, [r7, #32]
 80012b2:	6a3b      	ldr	r3, [r7, #32]

      /* Generate Stop */
      SET_BIT(hi2c->Instance->CR1, I2C_CR1_STOP);
 80012b4:	68fb      	ldr	r3, [r7, #12]
 80012b6:	681b      	ldr	r3, [r3, #0]
 80012b8:	681a      	ldr	r2, [r3, #0]
 80012ba:	68fb      	ldr	r3, [r7, #12]
 80012bc:	681b      	ldr	r3, [r3, #0]
 80012be:	f442 7200 	orr.w	r2, r2, #512	; 0x200
 80012c2:	601a      	str	r2, [r3, #0]
 80012c4:	e184      	b.n	80015d0 <HAL_I2C_Mem_Read+0x418>
    }
    else if (hi2c->XferSize == 1U)
 80012c6:	68fb      	ldr	r3, [r7, #12]
 80012c8:	8d1b      	ldrh	r3, [r3, #40]	; 0x28
 80012ca:	2b01      	cmp	r3, #1
 80012cc:	d11b      	bne.n	8001306 <HAL_I2C_Mem_Read+0x14e>
    {
      /* Disable Acknowledge */
      CLEAR_BIT(hi2c->Instance->CR1, I2C_CR1_ACK);
 80012ce:	68fb      	ldr	r3, [r7, #12]
 80012d0:	681b      	ldr	r3, [r3, #0]
 80012d2:	681a      	ldr	r2, [r3, #0]
 80012d4:	68fb      	ldr	r3, [r7, #12]
 80012d6:	681b      	ldr	r3, [r3, #0]
 80012d8:	f422 6280 	bic.w	r2, r2, #1024	; 0x400
 80012dc:	601a      	str	r2, [r3, #0]

      /* Clear ADDR flag */
      __HAL_I2C_CLEAR_ADDRFLAG(hi2c);
 80012de:	2300      	movs	r3, #0
 80012e0:	61fb      	str	r3, [r7, #28]
 80012e2:	68fb      	ldr	r3, [r7, #12]
 80012e4:	681b      	ldr	r3, [r3, #0]
 80012e6:	695b      	ldr	r3, [r3, #20]
 80012e8:	61fb      	str	r3, [r7, #28]
 80012ea:	68fb      	ldr	r3, [r7, #12]
 80012ec:	681b      	ldr	r3, [r3, #0]
 80012ee:	699b      	ldr	r3, [r3, #24]
 80012f0:	61fb      	str	r3, [r7, #28]
 80012f2:	69fb      	ldr	r3, [r7, #28]

      /* Generate Stop */
      SET_BIT(hi2c->Instance->CR1, I2C_CR1_STOP);
 80012f4:	68fb      	ldr	r3, [r7, #12]
 80012f6:	681b      	ldr	r3, [r3, #0]
 80012f8:	681a      	ldr	r2, [r3, #0]
 80012fa:	68fb      	ldr	r3, [r7, #12]
 80012fc:	681b      	ldr	r3, [r3, #0]
 80012fe:	f442 7200 	orr.w	r2, r2, #512	; 0x200
 8001302:	601a      	str	r2, [r3, #0]
 8001304:	e164      	b.n	80015d0 <HAL_I2C_Mem_Read+0x418>
    }
    else if (hi2c->XferSize == 2U)
 8001306:	68fb      	ldr	r3, [r7, #12]
 8001308:	8d1b      	ldrh	r3, [r3, #40]	; 0x28
 800130a:	2b02      	cmp	r3, #2
 800130c:	d11b      	bne.n	8001346 <HAL_I2C_Mem_Read+0x18e>
    {
      /* Disable Acknowledge */
      CLEAR_BIT(hi2c->Instance->CR1, I2C_CR1_ACK);
 800130e:	68fb      	ldr	r3, [r7, #12]
 8001310:	681b      	ldr	r3, [r3, #0]
 8001312:	681a      	ldr	r2, [r3, #0]
 8001314:	68fb      	ldr	r3, [r7, #12]
 8001316:	681b      	ldr	r3, [r3, #0]
 8001318:	f422 6280 	bic.w	r2, r2, #1024	; 0x400
 800131c:	601a      	str	r2, [r3, #0]

      /* Enable Pos */
      SET_BIT(hi2c->Instance->CR1, I2C_CR1_POS);
 800131e:	68fb      	ldr	r3, [r7, #12]
 8001320:	681b      	ldr	r3, [r3, #0]
 8001322:	681a      	ldr	r2, [r3, #0]
 8001324:	68fb      	ldr	r3, [r7, #12]
 8001326:	681b      	ldr	r3, [r3, #0]
 8001328:	f442 6200 	orr.w	r2, r2, #2048	; 0x800
 800132c:	601a      	str	r2, [r3, #0]

      /* Clear ADDR flag */
      __HAL_I2C_CLEAR_ADDRFLAG(hi2c);
 800132e:	2300      	movs	r3, #0
 8001330:	61bb      	str	r3, [r7, #24]
 8001332:	68fb      	ldr	r3, [r7, #12]
 8001334:	681b      	ldr	r3, [r3, #0]
 8001336:	695b      	ldr	r3, [r3, #20]
 8001338:	61bb      	str	r3, [r7, #24]
 800133a:	68fb      	ldr	r3, [r7, #12]
 800133c:	681b      	ldr	r3, [r3, #0]
 800133e:	699b      	ldr	r3, [r3, #24]
 8001340:	61bb      	str	r3, [r7, #24]
 8001342:	69bb      	ldr	r3, [r7, #24]
 8001344:	e144      	b.n	80015d0 <HAL_I2C_Mem_Read+0x418>
    }
    else
    {
      /* Clear ADDR flag */
      __HAL_I2C_CLEAR_ADDRFLAG(hi2c);
 8001346:	2300      	movs	r3, #0
 8001348:	617b      	str	r3, [r7, #20]
 800134a:	68fb      	ldr	r3, [r7, #12]
 800134c:	681b      	ldr	r3, [r3, #0]
 800134e:	695b      	ldr	r3, [r3, #20]
 8001350:	617b      	str	r3, [r7, #20]
 8001352:	68fb      	ldr	r3, [r7, #12]
 8001354:	681b      	ldr	r3, [r3, #0]
 8001356:	699b      	ldr	r3, [r3, #24]
 8001358:	617b      	str	r3, [r7, #20]
 800135a:	697b      	ldr	r3, [r7, #20]
    }

    while (hi2c->XferSize > 0U)
 800135c:	e138      	b.n	80015d0 <HAL_I2C_Mem_Read+0x418>
    {
      if (hi2c->XferSize <= 3U)
 800135e:	68fb      	ldr	r3, [r7, #12]
 8001360:	8d1b      	ldrh	r3, [r3, #40]	; 0x28
 8001362:	2b03      	cmp	r3, #3
 8001364:	f200 80f1 	bhi.w	800154a <HAL_I2C_Mem_Read+0x392>
      {
        /* One byte */
        if (hi2c->XferSize == 1U)
 8001368:	68fb      	ldr	r3, [r7, #12]
 800136a:	8d1b      	ldrh	r3, [r3, #40]	; 0x28
 800136c:	2b01      	cmp	r3, #1
 800136e:	d123      	bne.n	80013b8 <HAL_I2C_Mem_Read+0x200>
        {
          /* Wait until RXNE flag is set */
          if (I2C_WaitOnRXNEFlagUntilTimeout(hi2c, Timeout, tickstart) != HAL_OK)
 8001370:	6a7a      	ldr	r2, [r7, #36]	; 0x24
 8001372:	6bb9      	ldr	r1, [r7, #56]	; 0x38
 8001374:	68f8      	ldr	r0, [r7, #12]
 8001376:	f000 fb44 	bl	8001a02 <I2C_WaitOnRXNEFlagUntilTimeout>
 800137a:	4603      	mov	r3, r0
 800137c:	2b00      	cmp	r3, #0
 800137e:	d001      	beq.n	8001384 <HAL_I2C_Mem_Read+0x1cc>
          {
            return HAL_ERROR;
 8001380:	2301      	movs	r3, #1
 8001382:	e139      	b.n	80015f8 <HAL_I2C_Mem_Read+0x440>
          }

          /* Read data from DR */
          *hi2c->pBuffPtr = (uint8_t)hi2c->Instance->DR;
 8001384:	68fb      	ldr	r3, [r7, #12]
 8001386:	681b      	ldr	r3, [r3, #0]
 8001388:	691a      	ldr	r2, [r3, #16]
 800138a:	68fb      	ldr	r3, [r7, #12]
 800138c:	6a5b      	ldr	r3, [r3, #36]	; 0x24
 800138e:	b2d2      	uxtb	r2, r2
 8001390:	701a      	strb	r2, [r3, #0]

          /* Increment Buffer pointer */
          hi2c->pBuffPtr++;
 8001392:	68fb      	ldr	r3, [r7, #12]
 8001394:	6a5b      	ldr	r3, [r3, #36]	; 0x24
 8001396:	1c5a      	adds	r2, r3, #1
 8001398:	68fb      	ldr	r3, [r7, #12]
 800139a:	625a      	str	r2, [r3, #36]	; 0x24

          /* Update counter */
          hi2c->XferSize--;
 800139c:	68fb      	ldr	r3, [r7, #12]
 800139e:	8d1b      	ldrh	r3, [r3, #40]	; 0x28
 80013a0:	3b01      	subs	r3, #1
 80013a2:	b29a      	uxth	r2, r3
 80013a4:	68fb      	ldr	r3, [r7, #12]
 80013a6:	851a      	strh	r2, [r3, #40]	; 0x28
          hi2c->XferCount--;
 80013a8:	68fb      	ldr	r3, [r7, #12]
 80013aa:	8d5b      	ldrh	r3, [r3, #42]	; 0x2a
 80013ac:	b29b      	uxth	r3, r3
 80013ae:	3b01      	subs	r3, #1
 80013b0:	b29a      	uxth	r2, r3
 80013b2:	68fb      	ldr	r3, [r7, #12]
 80013b4:	855a      	strh	r2, [r3, #42]	; 0x2a
 80013b6:	e10b      	b.n	80015d0 <HAL_I2C_Mem_Read+0x418>
        }
        /* Two bytes */
        else if (hi2c->XferSize == 2U)
 80013b8:	68fb      	ldr	r3, [r7, #12]
 80013ba:	8d1b      	ldrh	r3, [r3, #40]	; 0x28
 80013bc:	2b02      	cmp	r3, #2
 80013be:	d14e      	bne.n	800145e <HAL_I2C_Mem_Read+0x2a6>
        {
          /* Wait until BTF flag is set */
          if (I2C_WaitOnFlagUntilTimeout(hi2c, I2C_FLAG_BTF, RESET, Timeout, tickstart) != HAL_OK)
 80013c0:	6a7b      	ldr	r3, [r7, #36]	; 0x24
 80013c2:	9300      	str	r3, [sp, #0]
 80013c4:	6bbb      	ldr	r3, [r7, #56]	; 0x38
 80013c6:	2200      	movs	r2, #0
 80013c8:	4906      	ldr	r1, [pc, #24]	; (80013e4 <HAL_I2C_Mem_Read+0x22c>)
 80013ca:	68f8      	ldr	r0, [r7, #12]
 80013cc:	f000 fa02 	bl	80017d4 <I2C_WaitOnFlagUntilTimeout>
 80013d0:	4603      	mov	r3, r0
 80013d2:	2b00      	cmp	r3, #0
 80013d4:	d008      	beq.n	80013e8 <HAL_I2C_Mem_Read+0x230>
          {
            return HAL_ERROR;
 80013d6:	2301      	movs	r3, #1
 80013d8:	e10e      	b.n	80015f8 <HAL_I2C_Mem_Read+0x440>
 80013da:	bf00      	nop
 80013dc:	00100002 	.word	0x00100002
 80013e0:	ffff0000 	.word	0xffff0000
 80013e4:	00010004 	.word	0x00010004
          }

          /* Generate Stop */
          SET_BIT(hi2c->Instance->CR1, I2C_CR1_STOP);
 80013e8:	68fb      	ldr	r3, [r7, #12]
 80013ea:	681b      	ldr	r3, [r3, #0]
 80013ec:	681a      	ldr	r2, [r3, #0]
 80013ee:	68fb      	ldr	r3, [r7, #12]
 80013f0:	681b      	ldr	r3, [r3, #0]
 80013f2:	f442 7200 	orr.w	r2, r2, #512	; 0x200
 80013f6:	601a      	str	r2, [r3, #0]

          /* Read data from DR */
          *hi2c->pBuffPtr = (uint8_t)hi2c->Instance->DR;
 80013f8:	68fb      	ldr	r3, [r7, #12]
 80013fa:	681b      	ldr	r3, [r3, #0]
 80013fc:	691a      	ldr	r2, [r3, #16]
 80013fe:	68fb      	ldr	r3, [r7, #12]
 8001400:	6a5b      	ldr	r3, [r3, #36]	; 0x24
 8001402:	b2d2      	uxtb	r2, r2
 8001404:	701a      	strb	r2, [r3, #0]

          /* Increment Buffer pointer */
          hi2c->pBuffPtr++;
 8001406:	68fb      	ldr	r3, [r7, #12]
 8001408:	6a5b      	ldr	r3, [r3, #36]	; 0x24
 800140a:	1c5a      	adds	r2, r3, #1
 800140c:	68fb      	ldr	r3, [r7, #12]
 800140e:	625a      	str	r2, [r3, #36]	; 0x24

          /* Update counter */
          hi2c->XferSize--;
 8001410:	68fb      	ldr	r3, [r7, #12]
 8001412:	8d1b      	ldrh	r3, [r3, #40]	; 0x28
 8001414:	3b01      	subs	r3, #1
 8001416:	b29a      	uxth	r2, r3
 8001418:	68fb      	ldr	r3, [r7, #12]
 800141a:	851a      	strh	r2, [r3, #40]	; 0x28
          hi2c->XferCount--;
 800141c:	68fb      	ldr	r3, [r7, #12]
 800141e:	8d5b      	ldrh	r3, [r3, #42]	; 0x2a
 8001420:	b29b      	uxth	r3, r3
 8001422:	3b01      	subs	r3, #1
 8001424:	b29a      	uxth	r2, r3
 8001426:	68fb      	ldr	r3, [r7, #12]
 8001428:	855a      	strh	r2, [r3, #42]	; 0x2a

          /* Read data from DR */
          *hi2c->pBuffPtr = (uint8_t)hi2c->Instance->DR;
 800142a:	68fb      	ldr	r3, [r7, #12]
 800142c:	681b      	ldr	r3, [r3, #0]
 800142e:	691a      	ldr	r2, [r3, #16]
 8001430:	68fb      	ldr	r3, [r7, #12]
 8001432:	6a5b      	ldr	r3, [r3, #36]	; 0x24
 8001434:	b2d2      	uxtb	r2, r2
 8001436:	701a      	strb	r2, [r3, #0]

          /* Increment Buffer pointer */
          hi2c->pBuffPtr++;
 8001438:	68fb      	ldr	r3, [r7, #12]
 800143a:	6a5b      	ldr	r3, [r3, #36]	; 0x24
 800143c:	1c5a      	adds	r2, r3, #1
 800143e:	68fb      	ldr	r3, [r7, #12]
 8001440:	625a      	str	r2, [r3, #36]	; 0x24

          /* Update counter */
          hi2c->XferSize--;
 8001442:	68fb      	ldr	r3, [r7, #12]
 8001444:	8d1b      	ldrh	r3, [r3, #40]	; 0x28
 8001446:	3b01      	subs	r3, #1
 8001448:	b29a      	uxth	r2, r3
 800144a:	68fb      	ldr	r3, [r7, #12]
 800144c:	851a      	strh	r2, [r3, #40]	; 0x28
          hi2c->XferCount--;
 800144e:	68fb      	ldr	r3, [r7, #12]
 8001450:	8d5b      	ldrh	r3, [r3, #42]	; 0x2a
 8001452:	b29b      	uxth	r3, r3
 8001454:	3b01      	subs	r3, #1
 8001456:	b29a      	uxth	r2, r3
 8001458:	68fb      	ldr	r3, [r7, #12]
 800145a:	855a      	strh	r2, [r3, #42]	; 0x2a
 800145c:	e0b8      	b.n	80015d0 <HAL_I2C_Mem_Read+0x418>
        }
        /* 3 Last bytes */
        else
        {
          /* Wait until BTF flag is set */
          if (I2C_WaitOnFlagUntilTimeout(hi2c, I2C_FLAG_BTF, RESET, Timeout, tickstart) != HAL_OK)
 800145e:	6a7b      	ldr	r3, [r7, #36]	; 0x24
 8001460:	9300      	str	r3, [sp, #0]
 8001462:	6bbb      	ldr	r3, [r7, #56]	; 0x38
 8001464:	2200      	movs	r2, #0
 8001466:	4966      	ldr	r1, [pc, #408]	; (8001600 <HAL_I2C_Mem_Read+0x448>)
 8001468:	68f8      	ldr	r0, [r7, #12]
 800146a:	f000 f9b3 	bl	80017d4 <I2C_WaitOnFlagUntilTimeout>
 800146e:	4603      	mov	r3, r0
 8001470:	2b00      	cmp	r3, #0
 8001472:	d001      	beq.n	8001478 <HAL_I2C_Mem_Read+0x2c0>
          {
            return HAL_ERROR;
 8001474:	2301      	movs	r3, #1
 8001476:	e0bf      	b.n	80015f8 <HAL_I2C_Mem_Read+0x440>
          }

          /* Disable Acknowledge */
          CLEAR_BIT(hi2c->Instance->CR1, I2C_CR1_ACK);
 8001478:	68fb      	ldr	r3, [r7, #12]
 800147a:	681b      	ldr	r3, [r3, #0]
 800147c:	681a      	ldr	r2, [r3, #0]
 800147e:	68fb      	ldr	r3, [r7, #12]
 8001480:	681b      	ldr	r3, [r3, #0]
 8001482:	f422 6280 	bic.w	r2, r2, #1024	; 0x400
 8001486:	601a      	str	r2, [r3, #0]

          /* Read data from DR */
          *hi2c->pBuffPtr = (uint8_t)hi2c->Instance->DR;
 8001488:	68fb      	ldr	r3, [r7, #12]
 800148a:	681b      	ldr	r3, [r3, #0]
 800148c:	691a      	ldr	r2, [r3, #16]
 800148e:	68fb      	ldr	r3, [r7, #12]
 8001490:	6a5b      	ldr	r3, [r3, #36]	; 0x24
 8001492:	b2d2      	uxtb	r2, r2
 8001494:	701a      	strb	r2, [r3, #0]

          /* Increment Buffer pointer */
          hi2c->pBuffPtr++;
 8001496:	68fb      	ldr	r3, [r7, #12]
 8001498:	6a5b      	ldr	r3, [r3, #36]	; 0x24
 800149a:	1c5a      	adds	r2, r3, #1
 800149c:	68fb      	ldr	r3, [r7, #12]
 800149e:	625a      	str	r2, [r3, #36]	; 0x24

          /* Update counter */
          hi2c->XferSize--;
 80014a0:	68fb      	ldr	r3, [r7, #12]
 80014a2:	8d1b      	ldrh	r3, [r3, #40]	; 0x28
 80014a4:	3b01      	subs	r3, #1
 80014a6:	b29a      	uxth	r2, r3
 80014a8:	68fb      	ldr	r3, [r7, #12]
 80014aa:	851a      	strh	r2, [r3, #40]	; 0x28
          hi2c->XferCount--;
 80014ac:	68fb      	ldr	r3, [r7, #12]
 80014ae:	8d5b      	ldrh	r3, [r3, #42]	; 0x2a
 80014b0:	b29b      	uxth	r3, r3
 80014b2:	3b01      	subs	r3, #1
 80014b4:	b29a      	uxth	r2, r3
 80014b6:	68fb      	ldr	r3, [r7, #12]
 80014b8:	855a      	strh	r2, [r3, #42]	; 0x2a

          /* Wait until BTF flag is set */
          if (I2C_WaitOnFlagUntilTimeout(hi2c, I2C_FLAG_BTF, RESET, Timeout, tickstart) != HAL_OK)
 80014ba:	6a7b      	ldr	r3, [r7, #36]	; 0x24
 80014bc:	9300      	str	r3, [sp, #0]
 80014be:	6bbb      	ldr	r3, [r7, #56]	; 0x38
 80014c0:	2200      	movs	r2, #0
 80014c2:	494f      	ldr	r1, [pc, #316]	; (8001600 <HAL_I2C_Mem_Read+0x448>)
 80014c4:	68f8      	ldr	r0, [r7, #12]
 80014c6:	f000 f985 	bl	80017d4 <I2C_WaitOnFlagUntilTimeout>
 80014ca:	4603      	mov	r3, r0
 80014cc:	2b00      	cmp	r3, #0
 80014ce:	d001      	beq.n	80014d4 <HAL_I2C_Mem_Read+0x31c>
          {
            return HAL_ERROR;
 80014d0:	2301      	movs	r3, #1
 80014d2:	e091      	b.n	80015f8 <HAL_I2C_Mem_Read+0x440>
          }

          /* Generate Stop */
          SET_BIT(hi2c->Instance->CR1, I2C_CR1_STOP);
 80014d4:	68fb      	ldr	r3, [r7, #12]
 80014d6:	681b      	ldr	r3, [r3, #0]
 80014d8:	681a      	ldr	r2, [r3, #0]
 80014da:	68fb      	ldr	r3, [r7, #12]
 80014dc:	681b      	ldr	r3, [r3, #0]
 80014de:	f442 7200 	orr.w	r2, r2, #512	; 0x200
 80014e2:	601a      	str	r2, [r3, #0]

          /* Read data from DR */
          *hi2c->pBuffPtr = (uint8_t)hi2c->Instance->DR;
 80014e4:	68fb      	ldr	r3, [r7, #12]
 80014e6:	681b      	ldr	r3, [r3, #0]
 80014e8:	691a      	ldr	r2, [r3, #16]
 80014ea:	68fb      	ldr	r3, [r7, #12]
 80014ec:	6a5b      	ldr	r3, [r3, #36]	; 0x24
 80014ee:	b2d2      	uxtb	r2, r2
 80014f0:	701a      	strb	r2, [r3, #0]

          /* Increment Buffer pointer */
          hi2c->pBuffPtr++;
 80014f2:	68fb      	ldr	r3, [r7, #12]
 80014f4:	6a5b      	ldr	r3, [r3, #36]	; 0x24
 80014f6:	1c5a      	adds	r2, r3, #1
 80014f8:	68fb      	ldr	r3, [r7, #12]
 80014fa:	625a      	str	r2, [r3, #36]	; 0x24

          /* Update counter */
          hi2c->XferSize--;
 80014fc:	68fb      	ldr	r3, [r7, #12]
 80014fe:	8d1b      	ldrh	r3, [r3, #40]	; 0x28
 8001500:	3b01      	subs	r3, #1
 8001502:	b29a      	uxth	r2, r3
 8001504:	68fb      	ldr	r3, [r7, #12]
 8001506:	851a      	strh	r2, [r3, #40]	; 0x28
          hi2c->XferCount--;
 8001508:	68fb      	ldr	r3, [r7, #12]
 800150a:	8d5b      	ldrh	r3, [r3, #42]	; 0x2a
 800150c:	b29b      	uxth	r3, r3
 800150e:	3b01      	subs	r3, #1
 8001510:	b29a      	uxth	r2, r3
 8001512:	68fb      	ldr	r3, [r7, #12]
 8001514:	855a      	strh	r2, [r3, #42]	; 0x2a

          /* Read data from DR */
          *hi2c->pBuffPtr = (uint8_t)hi2c->Instance->DR;
 8001516:	68fb      	ldr	r3, [r7, #12]
 8001518:	681b      	ldr	r3, [r3, #0]
 800151a:	691a      	ldr	r2, [r3, #16]
 800151c:	68fb      	ldr	r3, [r7, #12]
 800151e:	6a5b      	ldr	r3, [r3, #36]	; 0x24
 8001520:	b2d2      	uxtb	r2, r2
 8001522:	701a      	strb	r2, [r3, #0]

          /* Increment Buffer pointer */
          hi2c->pBuffPtr++;
 8001524:	68fb      	ldr	r3, [r7, #12]
 8001526:	6a5b      	ldr	r3, [r3, #36]	; 0x24
 8001528:	1c5a      	adds	r2, r3, #1
 800152a:	68fb      	ldr	r3, [r7, #12]
 800152c:	625a      	str	r2, [r3, #36]	; 0x24

          /* Update counter */
          hi2c->XferSize--;
 800152e:	68fb      	ldr	r3, [r7, #12]
 8001530:	8d1b      	ldrh	r3, [r3, #40]	; 0x28
 8001532:	3b01      	subs	r3, #1
 8001534:	b29a      	uxth	r2, r3
 8001536:	68fb      	ldr	r3, [r7, #12]
 8001538:	851a      	strh	r2, [r3, #40]	; 0x28
          hi2c->XferCount--;
 800153a:	68fb      	ldr	r3, [r7, #12]
 800153c:	8d5b      	ldrh	r3, [r3, #42]	; 0x2a
 800153e:	b29b      	uxth	r3, r3
 8001540:	3b01      	subs	r3, #1
 8001542:	b29a      	uxth	r2, r3
 8001544:	68fb      	ldr	r3, [r7, #12]
 8001546:	855a      	strh	r2, [r3, #42]	; 0x2a
 8001548:	e042      	b.n	80015d0 <HAL_I2C_Mem_Read+0x418>
        }
      }
      else
      {
        /* Wait until RXNE flag is set */
        if (I2C_WaitOnRXNEFlagUntilTimeout(hi2c, Timeout, tickstart) != HAL_OK)
 800154a:	6a7a      	ldr	r2, [r7, #36]	; 0x24
 800154c:	6bb9      	ldr	r1, [r7, #56]	; 0x38
 800154e:	68f8      	ldr	r0, [r7, #12]
 8001550:	f000 fa57 	bl	8001a02 <I2C_WaitOnRXNEFlagUntilTimeout>
 8001554:	4603      	mov	r3, r0
 8001556:	2b00      	cmp	r3, #0
 8001558:	d001      	beq.n	800155e <HAL_I2C_Mem_Read+0x3a6>
        {
          return HAL_ERROR;
 800155a:	2301      	movs	r3, #1
 800155c:	e04c      	b.n	80015f8 <HAL_I2C_Mem_Read+0x440>
        }

        /* Read data from DR */
        *hi2c->pBuffPtr = (uint8_t)hi2c->Instance->DR;
 800155e:	68fb      	ldr	r3, [r7, #12]
 8001560:	681b      	ldr	r3, [r3, #0]
 8001562:	691a      	ldr	r2, [r3, #16]
 8001564:	68fb      	ldr	r3, [r7, #12]
 8001566:	6a5b      	ldr	r3, [r3, #36]	; 0x24
 8001568:	b2d2      	uxtb	r2, r2
 800156a:	701a      	strb	r2, [r3, #0]

        /* Increment Buffer pointer */
        hi2c->pBuffPtr++;
 800156c:	68fb      	ldr	r3, [r7, #12]
 800156e:	6a5b      	ldr	r3, [r3, #36]	; 0x24
 8001570:	1c5a      	adds	r2, r3, #1
 8001572:	68fb      	ldr	r3, [r7, #12]
 8001574:	625a      	str	r2, [r3, #36]	; 0x24

        /* Update counter */
        hi2c->XferSize--;
 8001576:	68fb      	ldr	r3, [r7, #12]
 8001578:	8d1b      	ldrh	r3, [r3, #40]	; 0x28
 800157a:	3b01      	subs	r3, #1
 800157c:	b29a      	uxth	r2, r3
 800157e:	68fb      	ldr	r3, [r7, #12]
 8001580:	851a      	strh	r2, [r3, #40]	; 0x28
        hi2c->XferCount--;
 8001582:	68fb      	ldr	r3, [r7, #12]
 8001584:	8d5b      	ldrh	r3, [r3, #42]	; 0x2a
 8001586:	b29b      	uxth	r3, r3
 8001588:	3b01      	subs	r3, #1
 800158a:	b29a      	uxth	r2, r3
 800158c:	68fb      	ldr	r3, [r7, #12]
 800158e:	855a      	strh	r2, [r3, #42]	; 0x2a

        if (__HAL_I2C_GET_FLAG(hi2c, I2C_FLAG_BTF) == SET)
 8001590:	68fb      	ldr	r3, [r7, #12]
 8001592:	681b      	ldr	r3, [r3, #0]
 8001594:	695b      	ldr	r3, [r3, #20]
 8001596:	f003 0304 	and.w	r3, r3, #4
 800159a:	2b04      	cmp	r3, #4
 800159c:	d118      	bne.n	80015d0 <HAL_I2C_Mem_Read+0x418>
        {
          /* Read data from DR */
          *hi2c->pBuffPtr = (uint8_t)hi2c->Instance->DR;
 800159e:	68fb      	ldr	r3, [r7, #12]
 80015a0:	681b      	ldr	r3, [r3, #0]
 80015a2:	691a      	ldr	r2, [r3, #16]
 80015a4:	68fb      	ldr	r3, [r7, #12]
 80015a6:	6a5b      	ldr	r3, [r3, #36]	; 0x24
 80015a8:	b2d2      	uxtb	r2, r2
 80015aa:	701a      	strb	r2, [r3, #0]

          /* Increment Buffer pointer */
          hi2c->pBuffPtr++;
 80015ac:	68fb      	ldr	r3, [r7, #12]
 80015ae:	6a5b      	ldr	r3, [r3, #36]	; 0x24
 80015b0:	1c5a      	adds	r2, r3, #1
 80015b2:	68fb      	ldr	r3, [r7, #12]
 80015b4:	625a      	str	r2, [r3, #36]	; 0x24

          /* Update counter */
          hi2c->XferSize--;
 80015b6:	68fb      	ldr	r3, [r7, #12]
 80015b8:	8d1b      	ldrh	r3, [r3, #40]	; 0x28
 80015ba:	3b01      	subs	r3, #1
 80015bc:	b29a      	uxth	r2, r3
 80015be:	68fb      	ldr	r3, [r7, #12]
 80015c0:	851a      	strh	r2, [r3, #40]	; 0x28
          hi2c->XferCount--;
 80015c2:	68fb      	ldr	r3, [r7, #12]
 80015c4:	8d5b      	ldrh	r3, [r3, #42]	; 0x2a
 80015c6:	b29b      	uxth	r3, r3
 80015c8:	3b01      	subs	r3, #1
 80015ca:	b29a      	uxth	r2, r3
 80015cc:	68fb      	ldr	r3, [r7, #12]
 80015ce:	855a      	strh	r2, [r3, #42]	; 0x2a
    while (hi2c->XferSize > 0U)
 80015d0:	68fb      	ldr	r3, [r7, #12]
 80015d2:	8d1b      	ldrh	r3, [r3, #40]	; 0x28
 80015d4:	2b00      	cmp	r3, #0
 80015d6:	f47f aec2 	bne.w	800135e <HAL_I2C_Mem_Read+0x1a6>
        }
      }
    }

    hi2c->State = HAL_I2C_STATE_READY;
 80015da:	68fb      	ldr	r3, [r7, #12]
 80015dc:	2220      	movs	r2, #32
 80015de:	f883 203d 	strb.w	r2, [r3, #61]	; 0x3d
    hi2c->Mode = HAL_I2C_MODE_NONE;
 80015e2:	68fb      	ldr	r3, [r7, #12]
 80015e4:	2200      	movs	r2, #0
 80015e6:	f883 203e 	strb.w	r2, [r3, #62]	; 0x3e

    /* Process Unlocked */
    __HAL_UNLOCK(hi2c);
 80015ea:	68fb      	ldr	r3, [r7, #12]
 80015ec:	2200      	movs	r2, #0
 80015ee:	f883 203c 	strb.w	r2, [r3, #60]	; 0x3c

    return HAL_OK;
 80015f2:	2300      	movs	r3, #0
 80015f4:	e000      	b.n	80015f8 <HAL_I2C_Mem_Read+0x440>
  }
  else
  {
    return HAL_BUSY;
 80015f6:	2302      	movs	r3, #2
  }
}
 80015f8:	4618      	mov	r0, r3
 80015fa:	3728      	adds	r7, #40	; 0x28
 80015fc:	46bd      	mov	sp, r7
 80015fe:	bd80      	pop	{r7, pc}
 8001600:	00010004 	.word	0x00010004

08001604 <I2C_RequestMemoryRead>:
  * @param  Timeout Timeout duration
  * @param  Tickstart Tick start value
  * @retval HAL status
  */
static HAL_StatusTypeDef I2C_RequestMemoryRead(I2C_HandleTypeDef *hi2c, uint16_t DevAddress, uint16_t MemAddress, uint16_t MemAddSize, uint32_t Timeout, uint32_t Tickstart)
{
 8001604:	b580      	push	{r7, lr}
 8001606:	b088      	sub	sp, #32
 8001608:	af02      	add	r7, sp, #8
 800160a:	60f8      	str	r0, [r7, #12]
 800160c:	4608      	mov	r0, r1
 800160e:	4611      	mov	r1, r2
 8001610:	461a      	mov	r2, r3
 8001612:	4603      	mov	r3, r0
 8001614:	817b      	strh	r3, [r7, #10]
 8001616:	460b      	mov	r3, r1
 8001618:	813b      	strh	r3, [r7, #8]
 800161a:	4613      	mov	r3, r2
 800161c:	80fb      	strh	r3, [r7, #6]
  /* Enable Acknowledge */
  SET_BIT(hi2c->Instance->CR1, I2C_CR1_ACK);
 800161e:	68fb      	ldr	r3, [r7, #12]
 8001620:	681b      	ldr	r3, [r3, #0]
 8001622:	681a      	ldr	r2, [r3, #0]
 8001624:	68fb      	ldr	r3, [r7, #12]
 8001626:	681b      	ldr	r3, [r3, #0]
 8001628:	f442 6280 	orr.w	r2, r2, #1024	; 0x400
 800162c:	601a      	str	r2, [r3, #0]

  /* Generate Start */
  SET_BIT(hi2c->Instance->CR1, I2C_CR1_START);
 800162e:	68fb      	ldr	r3, [r7, #12]
 8001630:	681b      	ldr	r3, [r3, #0]
 8001632:	681a      	ldr	r2, [r3, #0]
 8001634:	68fb      	ldr	r3, [r7, #12]
 8001636:	681b      	ldr	r3, [r3, #0]
 8001638:	f442 7280 	orr.w	r2, r2, #256	; 0x100
 800163c:	601a      	str	r2, [r3, #0]

  /* Wait until SB flag is set */
  if (I2C_WaitOnFlagUntilTimeout(hi2c, I2C_FLAG_SB, RESET, Timeout, Tickstart) != HAL_OK)
 800163e:	6a7b      	ldr	r3, [r7, #36]	; 0x24
 8001640:	9300      	str	r3, [sp, #0]
 8001642:	6a3b      	ldr	r3, [r7, #32]
 8001644:	2200      	movs	r2, #0
 8001646:	f04f 1101 	mov.w	r1, #65537	; 0x10001
 800164a:	68f8      	ldr	r0, [r7, #12]
 800164c:	f000 f8c2 	bl	80017d4 <I2C_WaitOnFlagUntilTimeout>
 8001650:	4603      	mov	r3, r0
 8001652:	2b00      	cmp	r3, #0
 8001654:	d00d      	beq.n	8001672 <I2C_RequestMemoryRead+0x6e>
  {
    if (READ_BIT(hi2c->Instance->CR1, I2C_CR1_START) == I2C_CR1_START)
 8001656:	68fb      	ldr	r3, [r7, #12]
 8001658:	681b      	ldr	r3, [r3, #0]
 800165a:	681b      	ldr	r3, [r3, #0]
 800165c:	f403 7380 	and.w	r3, r3, #256	; 0x100
 8001660:	f5b3 7f80 	cmp.w	r3, #256	; 0x100
 8001664:	d103      	bne.n	800166e <I2C_RequestMemoryRead+0x6a>
    {
      hi2c->ErrorCode = HAL_I2C_WRONG_START;
 8001666:	68fb      	ldr	r3, [r7, #12]
 8001668:	f44f 7200 	mov.w	r2, #512	; 0x200
 800166c:	641a      	str	r2, [r3, #64]	; 0x40
    }
    return HAL_TIMEOUT;
 800166e:	2303      	movs	r3, #3
 8001670:	e0aa      	b.n	80017c8 <I2C_RequestMemoryRead+0x1c4>
  }

  /* Send slave address */
  hi2c->Instance->DR = I2C_7BIT_ADD_WRITE(DevAddress);
 8001672:	897b      	ldrh	r3, [r7, #10]
 8001674:	b2db      	uxtb	r3, r3
 8001676:	461a      	mov	r2, r3
 8001678:	68fb      	ldr	r3, [r7, #12]
 800167a:	681b      	ldr	r3, [r3, #0]
 800167c:	f002 02fe 	and.w	r2, r2, #254	; 0xfe
 8001680:	611a      	str	r2, [r3, #16]

  /* Wait until ADDR flag is set */
  if (I2C_WaitOnMasterAddressFlagUntilTimeout(hi2c, I2C_FLAG_ADDR, Timeout, Tickstart) != HAL_OK)
 8001682:	6a7b      	ldr	r3, [r7, #36]	; 0x24
 8001684:	6a3a      	ldr	r2, [r7, #32]
 8001686:	4952      	ldr	r1, [pc, #328]	; (80017d0 <I2C_RequestMemoryRead+0x1cc>)
 8001688:	68f8      	ldr	r0, [r7, #12]
 800168a:	f000 f8fa 	bl	8001882 <I2C_WaitOnMasterAddressFlagUntilTimeout>
 800168e:	4603      	mov	r3, r0
 8001690:	2b00      	cmp	r3, #0
 8001692:	d001      	beq.n	8001698 <I2C_RequestMemoryRead+0x94>
  {
    return HAL_ERROR;
 8001694:	2301      	movs	r3, #1
 8001696:	e097      	b.n	80017c8 <I2C_RequestMemoryRead+0x1c4>
  }

  /* Clear ADDR flag */
  __HAL_I2C_CLEAR_ADDRFLAG(hi2c);
 8001698:	2300      	movs	r3, #0
 800169a:	617b      	str	r3, [r7, #20]
 800169c:	68fb      	ldr	r3, [r7, #12]
 800169e:	681b      	ldr	r3, [r3, #0]
 80016a0:	695b      	ldr	r3, [r3, #20]
 80016a2:	617b      	str	r3, [r7, #20]
 80016a4:	68fb      	ldr	r3, [r7, #12]
 80016a6:	681b      	ldr	r3, [r3, #0]
 80016a8:	699b      	ldr	r3, [r3, #24]
 80016aa:	617b      	str	r3, [r7, #20]
 80016ac:	697b      	ldr	r3, [r7, #20]

  /* Wait until TXE flag is set */
  if (I2C_WaitOnTXEFlagUntilTimeout(hi2c, Timeout, Tickstart) != HAL_OK)
 80016ae:	6a7a      	ldr	r2, [r7, #36]	; 0x24
 80016b0:	6a39      	ldr	r1, [r7, #32]
 80016b2:	68f8      	ldr	r0, [r7, #12]
 80016b4:	f000 f964 	bl	8001980 <I2C_WaitOnTXEFlagUntilTimeout>
 80016b8:	4603      	mov	r3, r0
 80016ba:	2b00      	cmp	r3, #0
 80016bc:	d00d      	beq.n	80016da <I2C_RequestMemoryRead+0xd6>
  {
    if (hi2c->ErrorCode == HAL_I2C_ERROR_AF)
 80016be:	68fb      	ldr	r3, [r7, #12]
 80016c0:	6c1b      	ldr	r3, [r3, #64]	; 0x40
 80016c2:	2b04      	cmp	r3, #4
 80016c4:	d107      	bne.n	80016d6 <I2C_RequestMemoryRead+0xd2>
    {
      /* Generate Stop */
      SET_BIT(hi2c->Instance->CR1, I2C_CR1_STOP);
 80016c6:	68fb      	ldr	r3, [r7, #12]
 80016c8:	681b      	ldr	r3, [r3, #0]
 80016ca:	681a      	ldr	r2, [r3, #0]
 80016cc:	68fb      	ldr	r3, [r7, #12]
 80016ce:	681b      	ldr	r3, [r3, #0]
 80016d0:	f442 7200 	orr.w	r2, r2, #512	; 0x200
 80016d4:	601a      	str	r2, [r3, #0]
    }
    return HAL_ERROR;
 80016d6:	2301      	movs	r3, #1
 80016d8:	e076      	b.n	80017c8 <I2C_RequestMemoryRead+0x1c4>
  }

  /* If Memory address size is 8Bit */
  if (MemAddSize == I2C_MEMADD_SIZE_8BIT)
 80016da:	88fb      	ldrh	r3, [r7, #6]
 80016dc:	2b01      	cmp	r3, #1
 80016de:	d105      	bne.n	80016ec <I2C_RequestMemoryRead+0xe8>
  {
    /* Send Memory Address */
    hi2c->Instance->DR = I2C_MEM_ADD_LSB(MemAddress);
 80016e0:	893b      	ldrh	r3, [r7, #8]
 80016e2:	b2da      	uxtb	r2, r3
 80016e4:	68fb      	ldr	r3, [r7, #12]
 80016e6:	681b      	ldr	r3, [r3, #0]
 80016e8:	611a      	str	r2, [r3, #16]
 80016ea:	e021      	b.n	8001730 <I2C_RequestMemoryRead+0x12c>
  }
  /* If Memory address size is 16Bit */
  else
  {
    /* Send MSB of Memory Address */
    hi2c->Instance->DR = I2C_MEM_ADD_MSB(MemAddress);
 80016ec:	893b      	ldrh	r3, [r7, #8]
 80016ee:	0a1b      	lsrs	r3, r3, #8
 80016f0:	b29b      	uxth	r3, r3
 80016f2:	b2da      	uxtb	r2, r3
 80016f4:	68fb      	ldr	r3, [r7, #12]
 80016f6:	681b      	ldr	r3, [r3, #0]
 80016f8:	611a      	str	r2, [r3, #16]

    /* Wait until TXE flag is set */
    if (I2C_WaitOnTXEFlagUntilTimeout(hi2c, Timeout, Tickstart) != HAL_OK)
 80016fa:	6a7a      	ldr	r2, [r7, #36]	; 0x24
 80016fc:	6a39      	ldr	r1, [r7, #32]
 80016fe:	68f8      	ldr	r0, [r7, #12]
 8001700:	f000 f93e 	bl	8001980 <I2C_WaitOnTXEFlagUntilTimeout>
 8001704:	4603      	mov	r3, r0
 8001706:	2b00      	cmp	r3, #0
 8001708:	d00d      	beq.n	8001726 <I2C_RequestMemoryRead+0x122>
    {
      if (hi2c->ErrorCode == HAL_I2C_ERROR_AF)
 800170a:	68fb      	ldr	r3, [r7, #12]
 800170c:	6c1b      	ldr	r3, [r3, #64]	; 0x40
 800170e:	2b04      	cmp	r3, #4
 8001710:	d107      	bne.n	8001722 <I2C_RequestMemoryRead+0x11e>
      {
        /* Generate Stop */
        SET_BIT(hi2c->Instance->CR1, I2C_CR1_STOP);
 8001712:	68fb      	ldr	r3, [r7, #12]
 8001714:	681b      	ldr	r3, [r3, #0]
 8001716:	681a      	ldr	r2, [r3, #0]
 8001718:	68fb      	ldr	r3, [r7, #12]
 800171a:	681b      	ldr	r3, [r3, #0]
 800171c:	f442 7200 	orr.w	r2, r2, #512	; 0x200
 8001720:	601a      	str	r2, [r3, #0]
      }
      return HAL_ERROR;
 8001722:	2301      	movs	r3, #1
 8001724:	e050      	b.n	80017c8 <I2C_RequestMemoryRead+0x1c4>
    }

    /* Send LSB of Memory Address */
    hi2c->Instance->DR = I2C_MEM_ADD_LSB(MemAddress);
 8001726:	893b      	ldrh	r3, [r7, #8]
 8001728:	b2da      	uxtb	r2, r3
 800172a:	68fb      	ldr	r3, [r7, #12]
 800172c:	681b      	ldr	r3, [r3, #0]
 800172e:	611a      	str	r2, [r3, #16]
  }

  /* Wait until TXE flag is set */
  if (I2C_WaitOnTXEFlagUntilTimeout(hi2c, Timeout, Tickstart) != HAL_OK)
 8001730:	6a7a      	ldr	r2, [r7, #36]	; 0x24
 8001732:	6a39      	ldr	r1, [r7, #32]
 8001734:	68f8      	ldr	r0, [r7, #12]
 8001736:	f000 f923 	bl	8001980 <I2C_WaitOnTXEFlagUntilTimeout>
 800173a:	4603      	mov	r3, r0
 800173c:	2b00      	cmp	r3, #0
 800173e:	d00d      	beq.n	800175c <I2C_RequestMemoryRead+0x158>
  {
    if (hi2c->ErrorCode == HAL_I2C_ERROR_AF)
 8001740:	68fb      	ldr	r3, [r7, #12]
 8001742:	6c1b      	ldr	r3, [r3, #64]	; 0x40
 8001744:	2b04      	cmp	r3, #4
 8001746:	d107      	bne.n	8001758 <I2C_RequestMemoryRead+0x154>
    {
      /* Generate Stop */
      SET_BIT(hi2c->Instance->CR1, I2C_CR1_STOP);
 8001748:	68fb      	ldr	r3, [r7, #12]
 800174a:	681b      	ldr	r3, [r3, #0]
 800174c:	681a      	ldr	r2, [r3, #0]
 800174e:	68fb      	ldr	r3, [r7, #12]
 8001750:	681b      	ldr	r3, [r3, #0]
 8001752:	f442 7200 	orr.w	r2, r2, #512	; 0x200
 8001756:	601a      	str	r2, [r3, #0]
    }
    return HAL_ERROR;
 8001758:	2301      	movs	r3, #1
 800175a:	e035      	b.n	80017c8 <I2C_RequestMemoryRead+0x1c4>
  }

  /* Generate Restart */
  SET_BIT(hi2c->Instance->CR1, I2C_CR1_START);
 800175c:	68fb      	ldr	r3, [r7, #12]
 800175e:	681b      	ldr	r3, [r3, #0]
 8001760:	681a      	ldr	r2, [r3, #0]
 8001762:	68fb      	ldr	r3, [r7, #12]
 8001764:	681b      	ldr	r3, [r3, #0]
 8001766:	f442 7280 	orr.w	r2, r2, #256	; 0x100
 800176a:	601a      	str	r2, [r3, #0]

  /* Wait until SB flag is set */
  if (I2C_WaitOnFlagUntilTimeout(hi2c, I2C_FLAG_SB, RESET, Timeout, Tickstart) != HAL_OK)
 800176c:	6a7b      	ldr	r3, [r7, #36]	; 0x24
 800176e:	9300      	str	r3, [sp, #0]
 8001770:	6a3b      	ldr	r3, [r7, #32]
 8001772:	2200      	movs	r2, #0
 8001774:	f04f 1101 	mov.w	r1, #65537	; 0x10001
 8001778:	68f8      	ldr	r0, [r7, #12]
 800177a:	f000 f82b 	bl	80017d4 <I2C_WaitOnFlagUntilTimeout>
 800177e:	4603      	mov	r3, r0
 8001780:	2b00      	cmp	r3, #0
 8001782:	d00d      	beq.n	80017a0 <I2C_RequestMemoryRead+0x19c>
  {
    if (READ_BIT(hi2c->Instance->CR1, I2C_CR1_START) == I2C_CR1_START)
 8001784:	68fb      	ldr	r3, [r7, #12]
 8001786:	681b      	ldr	r3, [r3, #0]
 8001788:	681b      	ldr	r3, [r3, #0]
 800178a:	f403 7380 	and.w	r3, r3, #256	; 0x100
 800178e:	f5b3 7f80 	cmp.w	r3, #256	; 0x100
 8001792:	d103      	bne.n	800179c <I2C_RequestMemoryRead+0x198>
    {
      hi2c->ErrorCode = HAL_I2C_WRONG_START;
 8001794:	68fb      	ldr	r3, [r7, #12]
 8001796:	f44f 7200 	mov.w	r2, #512	; 0x200
 800179a:	641a      	str	r2, [r3, #64]	; 0x40
    }
    return HAL_TIMEOUT;
 800179c:	2303      	movs	r3, #3
 800179e:	e013      	b.n	80017c8 <I2C_RequestMemoryRead+0x1c4>
  }

  /* Send slave address */
  hi2c->Instance->DR = I2C_7BIT_ADD_READ(DevAddress);
 80017a0:	897b      	ldrh	r3, [r7, #10]
 80017a2:	b2db      	uxtb	r3, r3
 80017a4:	f043 0301 	orr.w	r3, r3, #1
 80017a8:	b2da      	uxtb	r2, r3
 80017aa:	68fb      	ldr	r3, [r7, #12]
 80017ac:	681b      	ldr	r3, [r3, #0]
 80017ae:	611a      	str	r2, [r3, #16]

  /* Wait until ADDR flag is set */
  if (I2C_WaitOnMasterAddressFlagUntilTimeout(hi2c, I2C_FLAG_ADDR, Timeout, Tickstart) != HAL_OK)
 80017b0:	6a7b      	ldr	r3, [r7, #36]	; 0x24
 80017b2:	6a3a      	ldr	r2, [r7, #32]
 80017b4:	4906      	ldr	r1, [pc, #24]	; (80017d0 <I2C_RequestMemoryRead+0x1cc>)
 80017b6:	68f8      	ldr	r0, [r7, #12]
 80017b8:	f000 f863 	bl	8001882 <I2C_WaitOnMasterAddressFlagUntilTimeout>
 80017bc:	4603      	mov	r3, r0
 80017be:	2b00      	cmp	r3, #0
 80017c0:	d001      	beq.n	80017c6 <I2C_RequestMemoryRead+0x1c2>
  {
    return HAL_ERROR;
 80017c2:	2301      	movs	r3, #1
 80017c4:	e000      	b.n	80017c8 <I2C_RequestMemoryRead+0x1c4>
  }

  return HAL_OK;
 80017c6:	2300      	movs	r3, #0
}
 80017c8:	4618      	mov	r0, r3
 80017ca:	3718      	adds	r7, #24
 80017cc:	46bd      	mov	sp, r7
 80017ce:	bd80      	pop	{r7, pc}
 80017d0:	00010002 	.word	0x00010002

080017d4 <I2C_WaitOnFlagUntilTimeout>:
  * @param  Timeout Timeout duration
  * @param  Tickstart Tick start value
  * @retval HAL status
  */
static HAL_StatusTypeDef I2C_WaitOnFlagUntilTimeout(I2C_HandleTypeDef *hi2c, uint32_t Flag, FlagStatus Status, uint32_t Timeout, uint32_t Tickstart)
{
 80017d4:	b580      	push	{r7, lr}
 80017d6:	b084      	sub	sp, #16
 80017d8:	af00      	add	r7, sp, #0
 80017da:	60f8      	str	r0, [r7, #12]
 80017dc:	60b9      	str	r1, [r7, #8]
 80017de:	603b      	str	r3, [r7, #0]
 80017e0:	4613      	mov	r3, r2
 80017e2:	71fb      	strb	r3, [r7, #7]
  /* Wait until flag is set */
  while (__HAL_I2C_GET_FLAG(hi2c, Flag) == Status)
 80017e4:	e025      	b.n	8001832 <I2C_WaitOnFlagUntilTimeout+0x5e>
  {
    /* Check for the Timeout */
    if (Timeout != HAL_MAX_DELAY)
 80017e6:	683b      	ldr	r3, [r7, #0]
 80017e8:	f1b3 3fff 	cmp.w	r3, #4294967295
 80017ec:	d021      	beq.n	8001832 <I2C_WaitOnFlagUntilTimeout+0x5e>
    {
      if (((HAL_GetTick() - Tickstart) > Timeout) || (Timeout == 0U))
 80017ee:	f7ff f8d1 	bl	8000994 <HAL_GetTick>
 80017f2:	4602      	mov	r2, r0
 80017f4:	69bb      	ldr	r3, [r7, #24]
 80017f6:	1ad3      	subs	r3, r2, r3
 80017f8:	683a      	ldr	r2, [r7, #0]
 80017fa:	429a      	cmp	r2, r3
 80017fc:	d302      	bcc.n	8001804 <I2C_WaitOnFlagUntilTimeout+0x30>
 80017fe:	683b      	ldr	r3, [r7, #0]
 8001800:	2b00      	cmp	r3, #0
 8001802:	d116      	bne.n	8001832 <I2C_WaitOnFlagUntilTimeout+0x5e>
      {
        hi2c->PreviousState     = I2C_STATE_NONE;
 8001804:	68fb      	ldr	r3, [r7, #12]
 8001806:	2200      	movs	r2, #0
 8001808:	631a      	str	r2, [r3, #48]	; 0x30
        hi2c->State             = HAL_I2C_STATE_READY;
 800180a:	68fb      	ldr	r3, [r7, #12]
 800180c:	2220      	movs	r2, #32
 800180e:	f883 203d 	strb.w	r2, [r3, #61]	; 0x3d
        hi2c->Mode              = HAL_I2C_MODE_NONE;
 8001812:	68fb      	ldr	r3, [r7, #12]
 8001814:	2200      	movs	r2, #0
 8001816:	f883 203e 	strb.w	r2, [r3, #62]	; 0x3e
        hi2c->ErrorCode         |= HAL_I2C_ERROR_TIMEOUT;
 800181a:	68fb      	ldr	r3, [r7, #12]
 800181c:	6c1b      	ldr	r3, [r3, #64]	; 0x40
 800181e:	f043 0220 	orr.w	r2, r3, #32
 8001822:	68fb      	ldr	r3, [r7, #12]
 8001824:	641a      	str	r2, [r3, #64]	; 0x40

        /* Process Unlocked */
        __HAL_UNLOCK(hi2c);
 8001826:	68fb      	ldr	r3, [r7, #12]
 8001828:	2200      	movs	r2, #0
 800182a:	f883 203c 	strb.w	r2, [r3, #60]	; 0x3c

        return HAL_ERROR;
 800182e:	2301      	movs	r3, #1
 8001830:	e023      	b.n	800187a <I2C_WaitOnFlagUntilTimeout+0xa6>
  while (__HAL_I2C_GET_FLAG(hi2c, Flag) == Status)
 8001832:	68bb      	ldr	r3, [r7, #8]
 8001834:	0c1b      	lsrs	r3, r3, #16
 8001836:	b2db      	uxtb	r3, r3
 8001838:	2b01      	cmp	r3, #1
 800183a:	d10d      	bne.n	8001858 <I2C_WaitOnFlagUntilTimeout+0x84>
 800183c:	68fb      	ldr	r3, [r7, #12]
 800183e:	681b      	ldr	r3, [r3, #0]
 8001840:	695b      	ldr	r3, [r3, #20]
 8001842:	43da      	mvns	r2, r3
 8001844:	68bb      	ldr	r3, [r7, #8]
 8001846:	4013      	ands	r3, r2
 8001848:	b29b      	uxth	r3, r3
 800184a:	2b00      	cmp	r3, #0
 800184c:	bf0c      	ite	eq
 800184e:	2301      	moveq	r3, #1
 8001850:	2300      	movne	r3, #0
 8001852:	b2db      	uxtb	r3, r3
 8001854:	461a      	mov	r2, r3
 8001856:	e00c      	b.n	8001872 <I2C_WaitOnFlagUntilTimeout+0x9e>
 8001858:	68fb      	ldr	r3, [r7, #12]
 800185a:	681b      	ldr	r3, [r3, #0]
 800185c:	699b      	ldr	r3, [r3, #24]
 800185e:	43da      	mvns	r2, r3
 8001860:	68bb      	ldr	r3, [r7, #8]
 8001862:	4013      	ands	r3, r2
 8001864:	b29b      	uxth	r3, r3
 8001866:	2b00      	cmp	r3, #0
 8001868:	bf0c      	ite	eq
 800186a:	2301      	moveq	r3, #1
 800186c:	2300      	movne	r3, #0
 800186e:	b2db      	uxtb	r3, r3
 8001870:	461a      	mov	r2, r3
 8001872:	79fb      	ldrb	r3, [r7, #7]
 8001874:	429a      	cmp	r2, r3
 8001876:	d0b6      	beq.n	80017e6 <I2C_WaitOnFlagUntilTimeout+0x12>
      }
    }
  }
  return HAL_OK;
 8001878:	2300      	movs	r3, #0
}
 800187a:	4618      	mov	r0, r3
 800187c:	3710      	adds	r7, #16
 800187e:	46bd      	mov	sp, r7
 8001880:	bd80      	pop	{r7, pc}

08001882 <I2C_WaitOnMasterAddressFlagUntilTimeout>:
  * @param  Timeout Timeout duration
  * @param  Tickstart Tick start value
  * @retval HAL status
  */
static HAL_StatusTypeDef I2C_WaitOnMasterAddressFlagUntilTimeout(I2C_HandleTypeDef *hi2c, uint32_t Flag, uint32_t Timeout, uint32_t Tickstart)
{
 8001882:	b580      	push	{r7, lr}
 8001884:	b084      	sub	sp, #16
 8001886:	af00      	add	r7, sp, #0
 8001888:	60f8      	str	r0, [r7, #12]
 800188a:	60b9      	str	r1, [r7, #8]
 800188c:	607a      	str	r2, [r7, #4]
 800188e:	603b      	str	r3, [r7, #0]
  while (__HAL_I2C_GET_FLAG(hi2c, Flag) == RESET)
 8001890:	e051      	b.n	8001936 <I2C_WaitOnMasterAddressFlagUntilTimeout+0xb4>
  {
    if (__HAL_I2C_GET_FLAG(hi2c, I2C_FLAG_AF) == SET)
 8001892:	68fb      	ldr	r3, [r7, #12]
 8001894:	681b      	ldr	r3, [r3, #0]
 8001896:	695b      	ldr	r3, [r3, #20]
 8001898:	f403 6380 	and.w	r3, r3, #1024	; 0x400
 800189c:	f5b3 6f80 	cmp.w	r3, #1024	; 0x400
 80018a0:	d123      	bne.n	80018ea <I2C_WaitOnMasterAddressFlagUntilTimeout+0x68>
    {
      /* Generate Stop */
      SET_BIT(hi2c->Instance->CR1, I2C_CR1_STOP);
 80018a2:	68fb      	ldr	r3, [r7, #12]
 80018a4:	681b      	ldr	r3, [r3, #0]
 80018a6:	681a      	ldr	r2, [r3, #0]
 80018a8:	68fb      	ldr	r3, [r7, #12]
 80018aa:	681b      	ldr	r3, [r3, #0]
 80018ac:	f442 7200 	orr.w	r2, r2, #512	; 0x200
 80018b0:	601a      	str	r2, [r3, #0]

      /* Clear AF Flag */
      __HAL_I2C_CLEAR_FLAG(hi2c, I2C_FLAG_AF);
 80018b2:	68fb      	ldr	r3, [r7, #12]
 80018b4:	681b      	ldr	r3, [r3, #0]
 80018b6:	f46f 6280 	mvn.w	r2, #1024	; 0x400
 80018ba:	615a      	str	r2, [r3, #20]

      hi2c->PreviousState       = I2C_STATE_NONE;
 80018bc:	68fb      	ldr	r3, [r7, #12]
 80018be:	2200      	movs	r2, #0
 80018c0:	631a      	str	r2, [r3, #48]	; 0x30
      hi2c->State               = HAL_I2C_STATE_READY;
 80018c2:	68fb      	ldr	r3, [r7, #12]
 80018c4:	2220      	movs	r2, #32
 80018c6:	f883 203d 	strb.w	r2, [r3, #61]	; 0x3d
      hi2c->Mode                = HAL_I2C_MODE_NONE;
 80018ca:	68fb      	ldr	r3, [r7, #12]
 80018cc:	2200      	movs	r2, #0
 80018ce:	f883 203e 	strb.w	r2, [r3, #62]	; 0x3e
      hi2c->ErrorCode           |= HAL_I2C_ERROR_AF;
 80018d2:	68fb      	ldr	r3, [r7, #12]
 80018d4:	6c1b      	ldr	r3, [r3, #64]	; 0x40
 80018d6:	f043 0204 	orr.w	r2, r3, #4
 80018da:	68fb      	ldr	r3, [r7, #12]
 80018dc:	641a      	str	r2, [r3, #64]	; 0x40

      /* Process Unlocked */
      __HAL_UNLOCK(hi2c);
 80018de:	68fb      	ldr	r3, [r7, #12]
 80018e0:	2200      	movs	r2, #0
 80018e2:	f883 203c 	strb.w	r2, [r3, #60]	; 0x3c

      return HAL_ERROR;
 80018e6:	2301      	movs	r3, #1
 80018e8:	e046      	b.n	8001978 <I2C_WaitOnMasterAddressFlagUntilTimeout+0xf6>
    }

    /* Check for the Timeout */
    if (Timeout != HAL_MAX_DELAY)
 80018ea:	687b      	ldr	r3, [r7, #4]
 80018ec:	f1b3 3fff 	cmp.w	r3, #4294967295
 80018f0:	d021      	beq.n	8001936 <I2C_WaitOnMasterAddressFlagUntilTimeout+0xb4>
    {
      if (((HAL_GetTick() - Tickstart) > Timeout) || (Timeout == 0U))
 80018f2:	f7ff f84f 	bl	8000994 <HAL_GetTick>
 80018f6:	4602      	mov	r2, r0
 80018f8:	683b      	ldr	r3, [r7, #0]
 80018fa:	1ad3      	subs	r3, r2, r3
 80018fc:	687a      	ldr	r2, [r7, #4]
 80018fe:	429a      	cmp	r2, r3
 8001900:	d302      	bcc.n	8001908 <I2C_WaitOnMasterAddressFlagUntilTimeout+0x86>
 8001902:	687b      	ldr	r3, [r7, #4]
 8001904:	2b00      	cmp	r3, #0
 8001906:	d116      	bne.n	8001936 <I2C_WaitOnMasterAddressFlagUntilTimeout+0xb4>
      {
        hi2c->PreviousState       = I2C_STATE_NONE;
 8001908:	68fb      	ldr	r3, [r7, #12]
 800190a:	2200      	movs	r2, #0
 800190c:	631a      	str	r2, [r3, #48]	; 0x30
        hi2c->State               = HAL_I2C_STATE_READY;
 800190e:	68fb      	ldr	r3, [r7, #12]
 8001910:	2220      	movs	r2, #32
 8001912:	f883 203d 	strb.w	r2, [r3, #61]	; 0x3d
        hi2c->Mode                = HAL_I2C_MODE_NONE;
 8001916:	68fb      	ldr	r3, [r7, #12]
 8001918:	2200      	movs	r2, #0
 800191a:	f883 203e 	strb.w	r2, [r3, #62]	; 0x3e
        hi2c->ErrorCode           |= HAL_I2C_ERROR_TIMEOUT;
 800191e:	68fb      	ldr	r3, [r7, #12]
 8001920:	6c1b      	ldr	r3, [r3, #64]	; 0x40
 8001922:	f043 0220 	orr.w	r2, r3, #32
 8001926:	68fb      	ldr	r3, [r7, #12]
 8001928:	641a      	str	r2, [r3, #64]	; 0x40

        /* Process Unlocked */
        __HAL_UNLOCK(hi2c);
 800192a:	68fb      	ldr	r3, [r7, #12]
 800192c:	2200      	movs	r2, #0
 800192e:	f883 203c 	strb.w	r2, [r3, #60]	; 0x3c

        return HAL_ERROR;
 8001932:	2301      	movs	r3, #1
 8001934:	e020      	b.n	8001978 <I2C_WaitOnMasterAddressFlagUntilTimeout+0xf6>
  while (__HAL_I2C_GET_FLAG(hi2c, Flag) == RESET)
 8001936:	68bb      	ldr	r3, [r7, #8]
 8001938:	0c1b      	lsrs	r3, r3, #16
 800193a:	b2db      	uxtb	r3, r3
 800193c:	2b01      	cmp	r3, #1
 800193e:	d10c      	bne.n	800195a <I2C_WaitOnMasterAddressFlagUntilTimeout+0xd8>
 8001940:	68fb      	ldr	r3, [r7, #12]
 8001942:	681b      	ldr	r3, [r3, #0]
 8001944:	695b      	ldr	r3, [r3, #20]
 8001946:	43da      	mvns	r2, r3
 8001948:	68bb      	ldr	r3, [r7, #8]
 800194a:	4013      	ands	r3, r2
 800194c:	b29b      	uxth	r3, r3
 800194e:	2b00      	cmp	r3, #0
 8001950:	bf14      	ite	ne
 8001952:	2301      	movne	r3, #1
 8001954:	2300      	moveq	r3, #0
 8001956:	b2db      	uxtb	r3, r3
 8001958:	e00b      	b.n	8001972 <I2C_WaitOnMasterAddressFlagUntilTimeout+0xf0>
 800195a:	68fb      	ldr	r3, [r7, #12]
 800195c:	681b      	ldr	r3, [r3, #0]
 800195e:	699b      	ldr	r3, [r3, #24]
 8001960:	43da      	mvns	r2, r3
 8001962:	68bb      	ldr	r3, [r7, #8]
 8001964:	4013      	ands	r3, r2
 8001966:	b29b      	uxth	r3, r3
 8001968:	2b00      	cmp	r3, #0
 800196a:	bf14      	ite	ne
 800196c:	2301      	movne	r3, #1
 800196e:	2300      	moveq	r3, #0
 8001970:	b2db      	uxtb	r3, r3
 8001972:	2b00      	cmp	r3, #0
 8001974:	d18d      	bne.n	8001892 <I2C_WaitOnMasterAddressFlagUntilTimeout+0x10>
      }
    }
  }
  return HAL_OK;
 8001976:	2300      	movs	r3, #0
}
 8001978:	4618      	mov	r0, r3
 800197a:	3710      	adds	r7, #16
 800197c:	46bd      	mov	sp, r7
 800197e:	bd80      	pop	{r7, pc}

08001980 <I2C_WaitOnTXEFlagUntilTimeout>:
  * @param  Timeout Timeout duration
  * @param  Tickstart Tick start value
  * @retval HAL status
  */
static HAL_StatusTypeDef I2C_WaitOnTXEFlagUntilTimeout(I2C_HandleTypeDef *hi2c, uint32_t Timeout, uint32_t Tickstart)
{
 8001980:	b580      	push	{r7, lr}
 8001982:	b084      	sub	sp, #16
 8001984:	af00      	add	r7, sp, #0
 8001986:	60f8      	str	r0, [r7, #12]
 8001988:	60b9      	str	r1, [r7, #8]
 800198a:	607a      	str	r2, [r7, #4]
  while (__HAL_I2C_GET_FLAG(hi2c, I2C_FLAG_TXE) == RESET)
 800198c:	e02d      	b.n	80019ea <I2C_WaitOnTXEFlagUntilTimeout+0x6a>
  {
    /* Check if a NACK is detected */
    if (I2C_IsAcknowledgeFailed(hi2c) != HAL_OK)
 800198e:	68f8      	ldr	r0, [r7, #12]
 8001990:	f000 f88d 	bl	8001aae <I2C_IsAcknowledgeFailed>
 8001994:	4603      	mov	r3, r0
 8001996:	2b00      	cmp	r3, #0
 8001998:	d001      	beq.n	800199e <I2C_WaitOnTXEFlagUntilTimeout+0x1e>
    {
      return HAL_ERROR;
 800199a:	2301      	movs	r3, #1
 800199c:	e02d      	b.n	80019fa <I2C_WaitOnTXEFlagUntilTimeout+0x7a>
    }

    /* Check for the Timeout */
    if (Timeout != HAL_MAX_DELAY)
 800199e:	68bb      	ldr	r3, [r7, #8]
 80019a0:	f1b3 3fff 	cmp.w	r3, #4294967295
 80019a4:	d021      	beq.n	80019ea <I2C_WaitOnTXEFlagUntilTimeout+0x6a>
    {
      if (((HAL_GetTick() - Tickstart) > Timeout) || (Timeout == 0U))
 80019a6:	f7fe fff5 	bl	8000994 <HAL_GetTick>
 80019aa:	4602      	mov	r2, r0
 80019ac:	687b      	ldr	r3, [r7, #4]
 80019ae:	1ad3      	subs	r3, r2, r3
 80019b0:	68ba      	ldr	r2, [r7, #8]
 80019b2:	429a      	cmp	r2, r3
 80019b4:	d302      	bcc.n	80019bc <I2C_WaitOnTXEFlagUntilTimeout+0x3c>
 80019b6:	68bb      	ldr	r3, [r7, #8]
 80019b8:	2b00      	cmp	r3, #0
 80019ba:	d116      	bne.n	80019ea <I2C_WaitOnTXEFlagUntilTimeout+0x6a>
      {
        hi2c->PreviousState       = I2C_STATE_NONE;
 80019bc:	68fb      	ldr	r3, [r7, #12]
 80019be:	2200      	movs	r2, #0
 80019c0:	631a      	str	r2, [r3, #48]	; 0x30
        hi2c->State               = HAL_I2C_STATE_READY;
 80019c2:	68fb      	ldr	r3, [r7, #12]
 80019c4:	2220      	movs	r2, #32
 80019c6:	f883 203d 	strb.w	r2, [r3, #61]	; 0x3d
        hi2c->Mode                = HAL_I2C_MODE_NONE;
 80019ca:	68fb      	ldr	r3, [r7, #12]
 80019cc:	2200      	movs	r2, #0
 80019ce:	f883 203e 	strb.w	r2, [r3, #62]	; 0x3e
        hi2c->ErrorCode           |= HAL_I2C_ERROR_TIMEOUT;
 80019d2:	68fb      	ldr	r3, [r7, #12]
 80019d4:	6c1b      	ldr	r3, [r3, #64]	; 0x40
 80019d6:	f043 0220 	orr.w	r2, r3, #32
 80019da:	68fb      	ldr	r3, [r7, #12]
 80019dc:	641a      	str	r2, [r3, #64]	; 0x40

        /* Process Unlocked */
        __HAL_UNLOCK(hi2c);
 80019de:	68fb      	ldr	r3, [r7, #12]
 80019e0:	2200      	movs	r2, #0
 80019e2:	f883 203c 	strb.w	r2, [r3, #60]	; 0x3c

        return HAL_ERROR;
 80019e6:	2301      	movs	r3, #1
 80019e8:	e007      	b.n	80019fa <I2C_WaitOnTXEFlagUntilTimeout+0x7a>
  while (__HAL_I2C_GET_FLAG(hi2c, I2C_FLAG_TXE) == RESET)
 80019ea:	68fb      	ldr	r3, [r7, #12]
 80019ec:	681b      	ldr	r3, [r3, #0]
 80019ee:	695b      	ldr	r3, [r3, #20]
 80019f0:	f003 0380 	and.w	r3, r3, #128	; 0x80
 80019f4:	2b80      	cmp	r3, #128	; 0x80
 80019f6:	d1ca      	bne.n	800198e <I2C_WaitOnTXEFlagUntilTimeout+0xe>
      }
    }
  }
  return HAL_OK;
 80019f8:	2300      	movs	r3, #0
}
 80019fa:	4618      	mov	r0, r3
 80019fc:	3710      	adds	r7, #16
 80019fe:	46bd      	mov	sp, r7
 8001a00:	bd80      	pop	{r7, pc}

08001a02 <I2C_WaitOnRXNEFlagUntilTimeout>:
  * @param  Timeout Timeout duration
  * @param  Tickstart Tick start value
  * @retval HAL status
  */
static HAL_StatusTypeDef I2C_WaitOnRXNEFlagUntilTimeout(I2C_HandleTypeDef *hi2c, uint32_t Timeout, uint32_t Tickstart)
{
 8001a02:	b580      	push	{r7, lr}
 8001a04:	b084      	sub	sp, #16
 8001a06:	af00      	add	r7, sp, #0
 8001a08:	60f8      	str	r0, [r7, #12]
 8001a0a:	60b9      	str	r1, [r7, #8]
 8001a0c:	607a      	str	r2, [r7, #4]

  while (__HAL_I2C_GET_FLAG(hi2c, I2C_FLAG_RXNE) == RESET)
 8001a0e:	e042      	b.n	8001a96 <I2C_WaitOnRXNEFlagUntilTimeout+0x94>
  {
    /* Check if a STOPF is detected */
    if (__HAL_I2C_GET_FLAG(hi2c, I2C_FLAG_STOPF) == SET)
 8001a10:	68fb      	ldr	r3, [r7, #12]
 8001a12:	681b      	ldr	r3, [r3, #0]
 8001a14:	695b      	ldr	r3, [r3, #20]
 8001a16:	f003 0310 	and.w	r3, r3, #16
 8001a1a:	2b10      	cmp	r3, #16
 8001a1c:	d119      	bne.n	8001a52 <I2C_WaitOnRXNEFlagUntilTimeout+0x50>
    {
      /* Clear STOP Flag */
      __HAL_I2C_CLEAR_FLAG(hi2c, I2C_FLAG_STOPF);
 8001a1e:	68fb      	ldr	r3, [r7, #12]
 8001a20:	681b      	ldr	r3, [r3, #0]
 8001a22:	f06f 0210 	mvn.w	r2, #16
 8001a26:	615a      	str	r2, [r3, #20]

      hi2c->PreviousState       = I2C_STATE_NONE;
 8001a28:	68fb      	ldr	r3, [r7, #12]
 8001a2a:	2200      	movs	r2, #0
 8001a2c:	631a      	str	r2, [r3, #48]	; 0x30
      hi2c->State               = HAL_I2C_STATE_READY;
 8001a2e:	68fb      	ldr	r3, [r7, #12]
 8001a30:	2220      	movs	r2, #32
 8001a32:	f883 203d 	strb.w	r2, [r3, #61]	; 0x3d
      hi2c->Mode                = HAL_I2C_MODE_NONE;
 8001a36:	68fb      	ldr	r3, [r7, #12]
 8001a38:	2200      	movs	r2, #0
 8001a3a:	f883 203e 	strb.w	r2, [r3, #62]	; 0x3e
      hi2c->ErrorCode           |= HAL_I2C_ERROR_NONE;
 8001a3e:	68fb      	ldr	r3, [r7, #12]
 8001a40:	6c1a      	ldr	r2, [r3, #64]	; 0x40
 8001a42:	68fb      	ldr	r3, [r7, #12]
 8001a44:	641a      	str	r2, [r3, #64]	; 0x40

      /* Process Unlocked */
      __HAL_UNLOCK(hi2c);
 8001a46:	68fb      	ldr	r3, [r7, #12]
 8001a48:	2200      	movs	r2, #0
 8001a4a:	f883 203c 	strb.w	r2, [r3, #60]	; 0x3c

      return HAL_ERROR;
 8001a4e:	2301      	movs	r3, #1
 8001a50:	e029      	b.n	8001aa6 <I2C_WaitOnRXNEFlagUntilTimeout+0xa4>
    }

    /* Check for the Timeout */
    if (((HAL_GetTick() - Tickstart) > Timeout) || (Timeout == 0U))
 8001a52:	f7fe ff9f 	bl	8000994 <HAL_GetTick>
 8001a56:	4602      	mov	r2, r0
 8001a58:	687b      	ldr	r3, [r7, #4]
 8001a5a:	1ad3      	subs	r3, r2, r3
 8001a5c:	68ba      	ldr	r2, [r7, #8]
 8001a5e:	429a      	cmp	r2, r3
 8001a60:	d302      	bcc.n	8001a68 <I2C_WaitOnRXNEFlagUntilTimeout+0x66>
 8001a62:	68bb      	ldr	r3, [r7, #8]
 8001a64:	2b00      	cmp	r3, #0
 8001a66:	d116      	bne.n	8001a96 <I2C_WaitOnRXNEFlagUntilTimeout+0x94>
    {
      hi2c->PreviousState       = I2C_STATE_NONE;
 8001a68:	68fb      	ldr	r3, [r7, #12]
 8001a6a:	2200      	movs	r2, #0
 8001a6c:	631a      	str	r2, [r3, #48]	; 0x30
      hi2c->State               = HAL_I2C_STATE_READY;
 8001a6e:	68fb      	ldr	r3, [r7, #12]
 8001a70:	2220      	movs	r2, #32
 8001a72:	f883 203d 	strb.w	r2, [r3, #61]	; 0x3d
      hi2c->Mode                = HAL_I2C_MODE_NONE;
 8001a76:	68fb      	ldr	r3, [r7, #12]
 8001a78:	2200      	movs	r2, #0
 8001a7a:	f883 203e 	strb.w	r2, [r3, #62]	; 0x3e
      hi2c->ErrorCode           |= HAL_I2C_ERROR_TIMEOUT;
 8001a7e:	68fb      	ldr	r3, [r7, #12]
 8001a80:	6c1b      	ldr	r3, [r3, #64]	; 0x40
 8001a82:	f043 0220 	orr.w	r2, r3, #32
 8001a86:	68fb      	ldr	r3, [r7, #12]
 8001a88:	641a      	str	r2, [r3, #64]	; 0x40

      /* Process Unlocked */
      __HAL_UNLOCK(hi2c);
 8001a8a:	68fb      	ldr	r3, [r7, #12]
 8001a8c:	2200      	movs	r2, #0
 8001a8e:	f883 203c 	strb.w	r2, [r3, #60]	; 0x3c

      return HAL_ERROR;
 8001a92:	2301      	movs	r3, #1
 8001a94:	e007      	b.n	8001aa6 <I2C_WaitOnRXNEFlagUntilTimeout+0xa4>
  while (__HAL_I2C_GET_FLAG(hi2c, I2C_FLAG_RXNE) == RESET)
 8001a96:	68fb      	ldr	r3, [r7, #12]
 8001a98:	681b      	ldr	r3, [r3, #0]
 8001a9a:	695b      	ldr	r3, [r3, #20]
 8001a9c:	f003 0340 	and.w	r3, r3, #64	; 0x40
 8001aa0:	2b40      	cmp	r3, #64	; 0x40
 8001aa2:	d1b5      	bne.n	8001a10 <I2C_WaitOnRXNEFlagUntilTimeout+0xe>
    }
  }
  return HAL_OK;
 8001aa4:	2300      	movs	r3, #0
}
 8001aa6:	4618      	mov	r0, r3
 8001aa8:	3710      	adds	r7, #16
 8001aaa:	46bd      	mov	sp, r7
 8001aac:	bd80      	pop	{r7, pc}

08001aae <I2C_IsAcknowledgeFailed>:
  * @param  hi2c Pointer to a I2C_HandleTypeDef structure that contains
  *                the configuration information for the specified I2C.
  * @retval HAL status
  */
static HAL_StatusTypeDef I2C_IsAcknowledgeFailed(I2C_HandleTypeDef *hi2c)
{
 8001aae:	b480      	push	{r7}
 8001ab0:	b083      	sub	sp, #12
 8001ab2:	af00      	add	r7, sp, #0
 8001ab4:	6078      	str	r0, [r7, #4]
  if (__HAL_I2C_GET_FLAG(hi2c, I2C_FLAG_AF) == SET)
 8001ab6:	687b      	ldr	r3, [r7, #4]
 8001ab8:	681b      	ldr	r3, [r3, #0]
 8001aba:	695b      	ldr	r3, [r3, #20]
 8001abc:	f403 6380 	and.w	r3, r3, #1024	; 0x400
 8001ac0:	f5b3 6f80 	cmp.w	r3, #1024	; 0x400
 8001ac4:	d11b      	bne.n	8001afe <I2C_IsAcknowledgeFailed+0x50>
  {
    /* Clear NACKF Flag */
    __HAL_I2C_CLEAR_FLAG(hi2c, I2C_FLAG_AF);
 8001ac6:	687b      	ldr	r3, [r7, #4]
 8001ac8:	681b      	ldr	r3, [r3, #0]
 8001aca:	f46f 6280 	mvn.w	r2, #1024	; 0x400
 8001ace:	615a      	str	r2, [r3, #20]

    hi2c->PreviousState       = I2C_STATE_NONE;
 8001ad0:	687b      	ldr	r3, [r7, #4]
 8001ad2:	2200      	movs	r2, #0
 8001ad4:	631a      	str	r2, [r3, #48]	; 0x30
    hi2c->State               = HAL_I2C_STATE_READY;
 8001ad6:	687b      	ldr	r3, [r7, #4]
 8001ad8:	2220      	movs	r2, #32
 8001ada:	f883 203d 	strb.w	r2, [r3, #61]	; 0x3d
    hi2c->Mode                = HAL_I2C_MODE_NONE;
 8001ade:	687b      	ldr	r3, [r7, #4]
 8001ae0:	2200      	movs	r2, #0
 8001ae2:	f883 203e 	strb.w	r2, [r3, #62]	; 0x3e
    hi2c->ErrorCode           |= HAL_I2C_ERROR_AF;
 8001ae6:	687b      	ldr	r3, [r7, #4]
 8001ae8:	6c1b      	ldr	r3, [r3, #64]	; 0x40
 8001aea:	f043 0204 	orr.w	r2, r3, #4
 8001aee:	687b      	ldr	r3, [r7, #4]
 8001af0:	641a      	str	r2, [r3, #64]	; 0x40

    /* Process Unlocked */
    __HAL_UNLOCK(hi2c);
 8001af2:	687b      	ldr	r3, [r7, #4]
 8001af4:	2200      	movs	r2, #0
 8001af6:	f883 203c 	strb.w	r2, [r3, #60]	; 0x3c

    return HAL_ERROR;
 8001afa:	2301      	movs	r3, #1
 8001afc:	e000      	b.n	8001b00 <I2C_IsAcknowledgeFailed+0x52>
  }
  return HAL_OK;
 8001afe:	2300      	movs	r3, #0
}
 8001b00:	4618      	mov	r0, r3
 8001b02:	370c      	adds	r7, #12
 8001b04:	46bd      	mov	sp, r7
 8001b06:	f85d 7b04 	ldr.w	r7, [sp], #4
 8001b0a:	4770      	bx	lr

08001b0c <HAL_RCC_OscConfig>:
  *         supported by this API. User should request a transition to HSE Off
  *         first and then HSE On or HSE Bypass.
  * @retval HAL status
  */
__weak HAL_StatusTypeDef HAL_RCC_OscConfig(RCC_OscInitTypeDef  *RCC_OscInitStruct)
{
 8001b0c:	b580      	push	{r7, lr}
 8001b0e:	b086      	sub	sp, #24
 8001b10:	af00      	add	r7, sp, #0
 8001b12:	6078      	str	r0, [r7, #4]
  uint32_t tickstart, pll_config;

  /* Check Null pointer */
  if(RCC_OscInitStruct == NULL)
 8001b14:	687b      	ldr	r3, [r7, #4]
 8001b16:	2b00      	cmp	r3, #0
 8001b18:	d101      	bne.n	8001b1e <HAL_RCC_OscConfig+0x12>
  {
    return HAL_ERROR;
 8001b1a:	2301      	movs	r3, #1
 8001b1c:	e264      	b.n	8001fe8 <HAL_RCC_OscConfig+0x4dc>
  }

  /* Check the parameters */
  assert_param(IS_RCC_OSCILLATORTYPE(RCC_OscInitStruct->OscillatorType));
  /*------------------------------- HSE Configuration ------------------------*/
  if(((RCC_OscInitStruct->OscillatorType) & RCC_OSCILLATORTYPE_HSE) == RCC_OSCILLATORTYPE_HSE)
 8001b1e:	687b      	ldr	r3, [r7, #4]
 8001b20:	681b      	ldr	r3, [r3, #0]
 8001b22:	f003 0301 	and.w	r3, r3, #1
 8001b26:	2b00      	cmp	r3, #0
 8001b28:	d075      	beq.n	8001c16 <HAL_RCC_OscConfig+0x10a>
  {
    /* Check the parameters */
    assert_param(IS_RCC_HSE(RCC_OscInitStruct->HSEState));
    /* When the HSE is used as system clock or clock source for PLL in these cases HSE will not disabled */
    if((__HAL_RCC_GET_SYSCLK_SOURCE() == RCC_CFGR_SWS_HSE) ||\
 8001b2a:	4ba3      	ldr	r3, [pc, #652]	; (8001db8 <HAL_RCC_OscConfig+0x2ac>)
 8001b2c:	689b      	ldr	r3, [r3, #8]
 8001b2e:	f003 030c 	and.w	r3, r3, #12
 8001b32:	2b04      	cmp	r3, #4
 8001b34:	d00c      	beq.n	8001b50 <HAL_RCC_OscConfig+0x44>
      ((__HAL_RCC_GET_SYSCLK_SOURCE() == RCC_CFGR_SWS_PLL) && ((RCC->PLLCFGR & RCC_PLLCFGR_PLLSRC) == RCC_PLLCFGR_PLLSRC_HSE)))
 8001b36:	4ba0      	ldr	r3, [pc, #640]	; (8001db8 <HAL_RCC_OscConfig+0x2ac>)
 8001b38:	689b      	ldr	r3, [r3, #8]
 8001b3a:	f003 030c 	and.w	r3, r3, #12
    if((__HAL_RCC_GET_SYSCLK_SOURCE() == RCC_CFGR_SWS_HSE) ||\
 8001b3e:	2b08      	cmp	r3, #8
 8001b40:	d112      	bne.n	8001b68 <HAL_RCC_OscConfig+0x5c>
      ((__HAL_RCC_GET_SYSCLK_SOURCE() == RCC_CFGR_SWS_PLL) && ((RCC->PLLCFGR & RCC_PLLCFGR_PLLSRC) == RCC_PLLCFGR_PLLSRC_HSE)))
 8001b42:	4b9d      	ldr	r3, [pc, #628]	; (8001db8 <HAL_RCC_OscConfig+0x2ac>)
 8001b44:	685b      	ldr	r3, [r3, #4]
 8001b46:	f403 0380 	and.w	r3, r3, #4194304	; 0x400000
 8001b4a:	f5b3 0f80 	cmp.w	r3, #4194304	; 0x400000
 8001b4e:	d10b      	bne.n	8001b68 <HAL_RCC_OscConfig+0x5c>
    {
      if((__HAL_RCC_GET_FLAG(RCC_FLAG_HSERDY) != RESET) && (RCC_OscInitStruct->HSEState == RCC_HSE_OFF))
 8001b50:	4b99      	ldr	r3, [pc, #612]	; (8001db8 <HAL_RCC_OscConfig+0x2ac>)
 8001b52:	681b      	ldr	r3, [r3, #0]
 8001b54:	f403 3300 	and.w	r3, r3, #131072	; 0x20000
 8001b58:	2b00      	cmp	r3, #0
 8001b5a:	d05b      	beq.n	8001c14 <HAL_RCC_OscConfig+0x108>
 8001b5c:	687b      	ldr	r3, [r7, #4]
 8001b5e:	685b      	ldr	r3, [r3, #4]
 8001b60:	2b00      	cmp	r3, #0
 8001b62:	d157      	bne.n	8001c14 <HAL_RCC_OscConfig+0x108>
      {
        return HAL_ERROR;
 8001b64:	2301      	movs	r3, #1
 8001b66:	e23f      	b.n	8001fe8 <HAL_RCC_OscConfig+0x4dc>
      }
    }
    else
    {
      /* Set the new HSE configuration ---------------------------------------*/
      __HAL_RCC_HSE_CONFIG(RCC_OscInitStruct->HSEState);
 8001b68:	687b      	ldr	r3, [r7, #4]
 8001b6a:	685b      	ldr	r3, [r3, #4]
 8001b6c:	f5b3 3f80 	cmp.w	r3, #65536	; 0x10000
 8001b70:	d106      	bne.n	8001b80 <HAL_RCC_OscConfig+0x74>
 8001b72:	4b91      	ldr	r3, [pc, #580]	; (8001db8 <HAL_RCC_OscConfig+0x2ac>)
 8001b74:	681b      	ldr	r3, [r3, #0]
 8001b76:	4a90      	ldr	r2, [pc, #576]	; (8001db8 <HAL_RCC_OscConfig+0x2ac>)
 8001b78:	f443 3380 	orr.w	r3, r3, #65536	; 0x10000
 8001b7c:	6013      	str	r3, [r2, #0]
 8001b7e:	e01d      	b.n	8001bbc <HAL_RCC_OscConfig+0xb0>
 8001b80:	687b      	ldr	r3, [r7, #4]
 8001b82:	685b      	ldr	r3, [r3, #4]
 8001b84:	f5b3 2fa0 	cmp.w	r3, #327680	; 0x50000
 8001b88:	d10c      	bne.n	8001ba4 <HAL_RCC_OscConfig+0x98>
 8001b8a:	4b8b      	ldr	r3, [pc, #556]	; (8001db8 <HAL_RCC_OscConfig+0x2ac>)
 8001b8c:	681b      	ldr	r3, [r3, #0]
 8001b8e:	4a8a      	ldr	r2, [pc, #552]	; (8001db8 <HAL_RCC_OscConfig+0x2ac>)
 8001b90:	f443 2380 	orr.w	r3, r3, #262144	; 0x40000
 8001b94:	6013      	str	r3, [r2, #0]
 8001b96:	4b88      	ldr	r3, [pc, #544]	; (8001db8 <HAL_RCC_OscConfig+0x2ac>)
 8001b98:	681b      	ldr	r3, [r3, #0]
 8001b9a:	4a87      	ldr	r2, [pc, #540]	; (8001db8 <HAL_RCC_OscConfig+0x2ac>)
 8001b9c:	f443 3380 	orr.w	r3, r3, #65536	; 0x10000
 8001ba0:	6013      	str	r3, [r2, #0]
 8001ba2:	e00b      	b.n	8001bbc <HAL_RCC_OscConfig+0xb0>
 8001ba4:	4b84      	ldr	r3, [pc, #528]	; (8001db8 <HAL_RCC_OscConfig+0x2ac>)
 8001ba6:	681b      	ldr	r3, [r3, #0]
 8001ba8:	4a83      	ldr	r2, [pc, #524]	; (8001db8 <HAL_RCC_OscConfig+0x2ac>)
 8001baa:	f423 3380 	bic.w	r3, r3, #65536	; 0x10000
 8001bae:	6013      	str	r3, [r2, #0]
 8001bb0:	4b81      	ldr	r3, [pc, #516]	; (8001db8 <HAL_RCC_OscConfig+0x2ac>)
 8001bb2:	681b      	ldr	r3, [r3, #0]
 8001bb4:	4a80      	ldr	r2, [pc, #512]	; (8001db8 <HAL_RCC_OscConfig+0x2ac>)
 8001bb6:	f423 2380 	bic.w	r3, r3, #262144	; 0x40000
 8001bba:	6013      	str	r3, [r2, #0]

      /* Check the HSE State */
      if((RCC_OscInitStruct->HSEState) != RCC_HSE_OFF)
 8001bbc:	687b      	ldr	r3, [r7, #4]
 8001bbe:	685b      	ldr	r3, [r3, #4]
 8001bc0:	2b00      	cmp	r3, #0
 8001bc2:	d013      	beq.n	8001bec <HAL_RCC_OscConfig+0xe0>
      {
        /* Get Start Tick */
        tickstart = HAL_GetTick();
 8001bc4:	f7fe fee6 	bl	8000994 <HAL_GetTick>
 8001bc8:	6138      	str	r0, [r7, #16]

        /* Wait till HSE is ready */
        while(__HAL_RCC_GET_FLAG(RCC_FLAG_HSERDY) == RESET)
 8001bca:	e008      	b.n	8001bde <HAL_RCC_OscConfig+0xd2>
        {
          if((HAL_GetTick() - tickstart ) > HSE_TIMEOUT_VALUE)
 8001bcc:	f7fe fee2 	bl	8000994 <HAL_GetTick>
 8001bd0:	4602      	mov	r2, r0
 8001bd2:	693b      	ldr	r3, [r7, #16]
 8001bd4:	1ad3      	subs	r3, r2, r3
 8001bd6:	2b64      	cmp	r3, #100	; 0x64
 8001bd8:	d901      	bls.n	8001bde <HAL_RCC_OscConfig+0xd2>
          {
            return HAL_TIMEOUT;
 8001bda:	2303      	movs	r3, #3
 8001bdc:	e204      	b.n	8001fe8 <HAL_RCC_OscConfig+0x4dc>
        while(__HAL_RCC_GET_FLAG(RCC_FLAG_HSERDY) == RESET)
 8001bde:	4b76      	ldr	r3, [pc, #472]	; (8001db8 <HAL_RCC_OscConfig+0x2ac>)
 8001be0:	681b      	ldr	r3, [r3, #0]
 8001be2:	f403 3300 	and.w	r3, r3, #131072	; 0x20000
 8001be6:	2b00      	cmp	r3, #0
 8001be8:	d0f0      	beq.n	8001bcc <HAL_RCC_OscConfig+0xc0>
 8001bea:	e014      	b.n	8001c16 <HAL_RCC_OscConfig+0x10a>
        }
      }
      else
      {
        /* Get Start Tick */
        tickstart = HAL_GetTick();
 8001bec:	f7fe fed2 	bl	8000994 <HAL_GetTick>
 8001bf0:	6138      	str	r0, [r7, #16]

        /* Wait till HSE is bypassed or disabled */
        while(__HAL_RCC_GET_FLAG(RCC_FLAG_HSERDY) != RESET)
 8001bf2:	e008      	b.n	8001c06 <HAL_RCC_OscConfig+0xfa>
        {
          if((HAL_GetTick() - tickstart ) > HSE_TIMEOUT_VALUE)
 8001bf4:	f7fe fece 	bl	8000994 <HAL_GetTick>
 8001bf8:	4602      	mov	r2, r0
 8001bfa:	693b      	ldr	r3, [r7, #16]
 8001bfc:	1ad3      	subs	r3, r2, r3
 8001bfe:	2b64      	cmp	r3, #100	; 0x64
 8001c00:	d901      	bls.n	8001c06 <HAL_RCC_OscConfig+0xfa>
          {
            return HAL_TIMEOUT;
 8001c02:	2303      	movs	r3, #3
 8001c04:	e1f0      	b.n	8001fe8 <HAL_RCC_OscConfig+0x4dc>
        while(__HAL_RCC_GET_FLAG(RCC_FLAG_HSERDY) != RESET)
 8001c06:	4b6c      	ldr	r3, [pc, #432]	; (8001db8 <HAL_RCC_OscConfig+0x2ac>)
 8001c08:	681b      	ldr	r3, [r3, #0]
 8001c0a:	f403 3300 	and.w	r3, r3, #131072	; 0x20000
 8001c0e:	2b00      	cmp	r3, #0
 8001c10:	d1f0      	bne.n	8001bf4 <HAL_RCC_OscConfig+0xe8>
 8001c12:	e000      	b.n	8001c16 <HAL_RCC_OscConfig+0x10a>
      if((__HAL_RCC_GET_FLAG(RCC_FLAG_HSERDY) != RESET) && (RCC_OscInitStruct->HSEState == RCC_HSE_OFF))
 8001c14:	bf00      	nop
        }
      }
    }
  }
  /*----------------------------- HSI Configuration --------------------------*/
  if(((RCC_OscInitStruct->OscillatorType) & RCC_OSCILLATORTYPE_HSI) == RCC_OSCILLATORTYPE_HSI)
 8001c16:	687b      	ldr	r3, [r7, #4]
 8001c18:	681b      	ldr	r3, [r3, #0]
 8001c1a:	f003 0302 	and.w	r3, r3, #2
 8001c1e:	2b00      	cmp	r3, #0
 8001c20:	d063      	beq.n	8001cea <HAL_RCC_OscConfig+0x1de>
    /* Check the parameters */
    assert_param(IS_RCC_HSI(RCC_OscInitStruct->HSIState));
    assert_param(IS_RCC_CALIBRATION_VALUE(RCC_OscInitStruct->HSICalibrationValue));

    /* Check if HSI is used as system clock or as PLL source when PLL is selected as system clock */
    if((__HAL_RCC_GET_SYSCLK_SOURCE() == RCC_CFGR_SWS_HSI) ||\
 8001c22:	4b65      	ldr	r3, [pc, #404]	; (8001db8 <HAL_RCC_OscConfig+0x2ac>)
 8001c24:	689b      	ldr	r3, [r3, #8]
 8001c26:	f003 030c 	and.w	r3, r3, #12
 8001c2a:	2b00      	cmp	r3, #0
 8001c2c:	d00b      	beq.n	8001c46 <HAL_RCC_OscConfig+0x13a>
      ((__HAL_RCC_GET_SYSCLK_SOURCE() == RCC_CFGR_SWS_PLL) && ((RCC->PLLCFGR & RCC_PLLCFGR_PLLSRC) == RCC_PLLCFGR_PLLSRC_HSI)))
 8001c2e:	4b62      	ldr	r3, [pc, #392]	; (8001db8 <HAL_RCC_OscConfig+0x2ac>)
 8001c30:	689b      	ldr	r3, [r3, #8]
 8001c32:	f003 030c 	and.w	r3, r3, #12
    if((__HAL_RCC_GET_SYSCLK_SOURCE() == RCC_CFGR_SWS_HSI) ||\
 8001c36:	2b08      	cmp	r3, #8
 8001c38:	d11c      	bne.n	8001c74 <HAL_RCC_OscConfig+0x168>
      ((__HAL_RCC_GET_SYSCLK_SOURCE() == RCC_CFGR_SWS_PLL) && ((RCC->PLLCFGR & RCC_PLLCFGR_PLLSRC) == RCC_PLLCFGR_PLLSRC_HSI)))
 8001c3a:	4b5f      	ldr	r3, [pc, #380]	; (8001db8 <HAL_RCC_OscConfig+0x2ac>)
 8001c3c:	685b      	ldr	r3, [r3, #4]
 8001c3e:	f403 0380 	and.w	r3, r3, #4194304	; 0x400000
 8001c42:	2b00      	cmp	r3, #0
 8001c44:	d116      	bne.n	8001c74 <HAL_RCC_OscConfig+0x168>
    {
      /* When HSI is used as system clock it will not disabled */
      if((__HAL_RCC_GET_FLAG(RCC_FLAG_HSIRDY) != RESET) && (RCC_OscInitStruct->HSIState != RCC_HSI_ON))
 8001c46:	4b5c      	ldr	r3, [pc, #368]	; (8001db8 <HAL_RCC_OscConfig+0x2ac>)
 8001c48:	681b      	ldr	r3, [r3, #0]
 8001c4a:	f003 0302 	and.w	r3, r3, #2
 8001c4e:	2b00      	cmp	r3, #0
 8001c50:	d005      	beq.n	8001c5e <HAL_RCC_OscConfig+0x152>
 8001c52:	687b      	ldr	r3, [r7, #4]
 8001c54:	68db      	ldr	r3, [r3, #12]
 8001c56:	2b01      	cmp	r3, #1
 8001c58:	d001      	beq.n	8001c5e <HAL_RCC_OscConfig+0x152>
      {
        return HAL_ERROR;
 8001c5a:	2301      	movs	r3, #1
 8001c5c:	e1c4      	b.n	8001fe8 <HAL_RCC_OscConfig+0x4dc>
      }
      /* Otherwise, just the calibration is allowed */
      else
      {
        /* Adjusts the Internal High Speed oscillator (HSI) calibration value.*/
        __HAL_RCC_HSI_CALIBRATIONVALUE_ADJUST(RCC_OscInitStruct->HSICalibrationValue);
 8001c5e:	4b56      	ldr	r3, [pc, #344]	; (8001db8 <HAL_RCC_OscConfig+0x2ac>)
 8001c60:	681b      	ldr	r3, [r3, #0]
 8001c62:	f023 02f8 	bic.w	r2, r3, #248	; 0xf8
 8001c66:	687b      	ldr	r3, [r7, #4]
 8001c68:	691b      	ldr	r3, [r3, #16]
 8001c6a:	00db      	lsls	r3, r3, #3
 8001c6c:	4952      	ldr	r1, [pc, #328]	; (8001db8 <HAL_RCC_OscConfig+0x2ac>)
 8001c6e:	4313      	orrs	r3, r2
 8001c70:	600b      	str	r3, [r1, #0]
      if((__HAL_RCC_GET_FLAG(RCC_FLAG_HSIRDY) != RESET) && (RCC_OscInitStruct->HSIState != RCC_HSI_ON))
 8001c72:	e03a      	b.n	8001cea <HAL_RCC_OscConfig+0x1de>
      }
    }
    else
    {
      /* Check the HSI State */
      if((RCC_OscInitStruct->HSIState)!= RCC_HSI_OFF)
 8001c74:	687b      	ldr	r3, [r7, #4]
 8001c76:	68db      	ldr	r3, [r3, #12]
 8001c78:	2b00      	cmp	r3, #0
 8001c7a:	d020      	beq.n	8001cbe <HAL_RCC_OscConfig+0x1b2>
      {
        /* Enable the Internal High Speed oscillator (HSI). */
        __HAL_RCC_HSI_ENABLE();
 8001c7c:	4b4f      	ldr	r3, [pc, #316]	; (8001dbc <HAL_RCC_OscConfig+0x2b0>)
 8001c7e:	2201      	movs	r2, #1
 8001c80:	601a      	str	r2, [r3, #0]

        /* Get Start Tick*/
        tickstart = HAL_GetTick();
 8001c82:	f7fe fe87 	bl	8000994 <HAL_GetTick>
 8001c86:	6138      	str	r0, [r7, #16]

        /* Wait till HSI is ready */
        while(__HAL_RCC_GET_FLAG(RCC_FLAG_HSIRDY) == RESET)
 8001c88:	e008      	b.n	8001c9c <HAL_RCC_OscConfig+0x190>
        {
          if((HAL_GetTick() - tickstart ) > HSI_TIMEOUT_VALUE)
 8001c8a:	f7fe fe83 	bl	8000994 <HAL_GetTick>
 8001c8e:	4602      	mov	r2, r0
 8001c90:	693b      	ldr	r3, [r7, #16]
 8001c92:	1ad3      	subs	r3, r2, r3
 8001c94:	2b02      	cmp	r3, #2
 8001c96:	d901      	bls.n	8001c9c <HAL_RCC_OscConfig+0x190>
          {
            return HAL_TIMEOUT;
 8001c98:	2303      	movs	r3, #3
 8001c9a:	e1a5      	b.n	8001fe8 <HAL_RCC_OscConfig+0x4dc>
        while(__HAL_RCC_GET_FLAG(RCC_FLAG_HSIRDY) == RESET)
 8001c9c:	4b46      	ldr	r3, [pc, #280]	; (8001db8 <HAL_RCC_OscConfig+0x2ac>)
 8001c9e:	681b      	ldr	r3, [r3, #0]
 8001ca0:	f003 0302 	and.w	r3, r3, #2
 8001ca4:	2b00      	cmp	r3, #0
 8001ca6:	d0f0      	beq.n	8001c8a <HAL_RCC_OscConfig+0x17e>
          }
        }

        /* Adjusts the Internal High Speed oscillator (HSI) calibration value. */
        __HAL_RCC_HSI_CALIBRATIONVALUE_ADJUST(RCC_OscInitStruct->HSICalibrationValue);
 8001ca8:	4b43      	ldr	r3, [pc, #268]	; (8001db8 <HAL_RCC_OscConfig+0x2ac>)
 8001caa:	681b      	ldr	r3, [r3, #0]
 8001cac:	f023 02f8 	bic.w	r2, r3, #248	; 0xf8
 8001cb0:	687b      	ldr	r3, [r7, #4]
 8001cb2:	691b      	ldr	r3, [r3, #16]
 8001cb4:	00db      	lsls	r3, r3, #3
 8001cb6:	4940      	ldr	r1, [pc, #256]	; (8001db8 <HAL_RCC_OscConfig+0x2ac>)
 8001cb8:	4313      	orrs	r3, r2
 8001cba:	600b      	str	r3, [r1, #0]
 8001cbc:	e015      	b.n	8001cea <HAL_RCC_OscConfig+0x1de>
      }
      else
      {
        /* Disable the Internal High Speed oscillator (HSI). */
        __HAL_RCC_HSI_DISABLE();
 8001cbe:	4b3f      	ldr	r3, [pc, #252]	; (8001dbc <HAL_RCC_OscConfig+0x2b0>)
 8001cc0:	2200      	movs	r2, #0
 8001cc2:	601a      	str	r2, [r3, #0]

        /* Get Start Tick*/
        tickstart = HAL_GetTick();
 8001cc4:	f7fe fe66 	bl	8000994 <HAL_GetTick>
 8001cc8:	6138      	str	r0, [r7, #16]

        /* Wait till HSI is ready */
        while(__HAL_RCC_GET_FLAG(RCC_FLAG_HSIRDY) != RESET)
 8001cca:	e008      	b.n	8001cde <HAL_RCC_OscConfig+0x1d2>
        {
          if((HAL_GetTick() - tickstart ) > HSI_TIMEOUT_VALUE)
 8001ccc:	f7fe fe62 	bl	8000994 <HAL_GetTick>
 8001cd0:	4602      	mov	r2, r0
 8001cd2:	693b      	ldr	r3, [r7, #16]
 8001cd4:	1ad3      	subs	r3, r2, r3
 8001cd6:	2b02      	cmp	r3, #2
 8001cd8:	d901      	bls.n	8001cde <HAL_RCC_OscConfig+0x1d2>
          {
            return HAL_TIMEOUT;
 8001cda:	2303      	movs	r3, #3
 8001cdc:	e184      	b.n	8001fe8 <HAL_RCC_OscConfig+0x4dc>
        while(__HAL_RCC_GET_FLAG(RCC_FLAG_HSIRDY) != RESET)
 8001cde:	4b36      	ldr	r3, [pc, #216]	; (8001db8 <HAL_RCC_OscConfig+0x2ac>)
 8001ce0:	681b      	ldr	r3, [r3, #0]
 8001ce2:	f003 0302 	and.w	r3, r3, #2
 8001ce6:	2b00      	cmp	r3, #0
 8001ce8:	d1f0      	bne.n	8001ccc <HAL_RCC_OscConfig+0x1c0>
        }
      }
    }
  }
  /*------------------------------ LSI Configuration -------------------------*/
  if(((RCC_OscInitStruct->OscillatorType) & RCC_OSCILLATORTYPE_LSI) == RCC_OSCILLATORTYPE_LSI)
 8001cea:	687b      	ldr	r3, [r7, #4]
 8001cec:	681b      	ldr	r3, [r3, #0]
 8001cee:	f003 0308 	and.w	r3, r3, #8
 8001cf2:	2b00      	cmp	r3, #0
 8001cf4:	d030      	beq.n	8001d58 <HAL_RCC_OscConfig+0x24c>
  {
    /* Check the parameters */
    assert_param(IS_RCC_LSI(RCC_OscInitStruct->LSIState));

    /* Check the LSI State */
    if((RCC_OscInitStruct->LSIState)!= RCC_LSI_OFF)
 8001cf6:	687b      	ldr	r3, [r7, #4]
 8001cf8:	695b      	ldr	r3, [r3, #20]
 8001cfa:	2b00      	cmp	r3, #0
 8001cfc:	d016      	beq.n	8001d2c <HAL_RCC_OscConfig+0x220>
    {
      /* Enable the Internal Low Speed oscillator (LSI). */
      __HAL_RCC_LSI_ENABLE();
 8001cfe:	4b30      	ldr	r3, [pc, #192]	; (8001dc0 <HAL_RCC_OscConfig+0x2b4>)
 8001d00:	2201      	movs	r2, #1
 8001d02:	601a      	str	r2, [r3, #0]

      /* Get Start Tick*/
      tickstart = HAL_GetTick();
 8001d04:	f7fe fe46 	bl	8000994 <HAL_GetTick>
 8001d08:	6138      	str	r0, [r7, #16]

      /* Wait till LSI is ready */
      while(__HAL_RCC_GET_FLAG(RCC_FLAG_LSIRDY) == RESET)
 8001d0a:	e008      	b.n	8001d1e <HAL_RCC_OscConfig+0x212>
      {
        if((HAL_GetTick() - tickstart ) > LSI_TIMEOUT_VALUE)
 8001d0c:	f7fe fe42 	bl	8000994 <HAL_GetTick>
 8001d10:	4602      	mov	r2, r0
 8001d12:	693b      	ldr	r3, [r7, #16]
 8001d14:	1ad3      	subs	r3, r2, r3
 8001d16:	2b02      	cmp	r3, #2
 8001d18:	d901      	bls.n	8001d1e <HAL_RCC_OscConfig+0x212>
        {
          return HAL_TIMEOUT;
 8001d1a:	2303      	movs	r3, #3
 8001d1c:	e164      	b.n	8001fe8 <HAL_RCC_OscConfig+0x4dc>
      while(__HAL_RCC_GET_FLAG(RCC_FLAG_LSIRDY) == RESET)
 8001d1e:	4b26      	ldr	r3, [pc, #152]	; (8001db8 <HAL_RCC_OscConfig+0x2ac>)
 8001d20:	6f5b      	ldr	r3, [r3, #116]	; 0x74
 8001d22:	f003 0302 	and.w	r3, r3, #2
 8001d26:	2b00      	cmp	r3, #0
 8001d28:	d0f0      	beq.n	8001d0c <HAL_RCC_OscConfig+0x200>
 8001d2a:	e015      	b.n	8001d58 <HAL_RCC_OscConfig+0x24c>
      }
    }
    else
    {
      /* Disable the Internal Low Speed oscillator (LSI). */
      __HAL_RCC_LSI_DISABLE();
 8001d2c:	4b24      	ldr	r3, [pc, #144]	; (8001dc0 <HAL_RCC_OscConfig+0x2b4>)
 8001d2e:	2200      	movs	r2, #0
 8001d30:	601a      	str	r2, [r3, #0]

      /* Get Start Tick */
      tickstart = HAL_GetTick();
 8001d32:	f7fe fe2f 	bl	8000994 <HAL_GetTick>
 8001d36:	6138      	str	r0, [r7, #16]

      /* Wait till LSI is ready */
      while(__HAL_RCC_GET_FLAG(RCC_FLAG_LSIRDY) != RESET)
 8001d38:	e008      	b.n	8001d4c <HAL_RCC_OscConfig+0x240>
      {
        if((HAL_GetTick() - tickstart ) > LSI_TIMEOUT_VALUE)
 8001d3a:	f7fe fe2b 	bl	8000994 <HAL_GetTick>
 8001d3e:	4602      	mov	r2, r0
 8001d40:	693b      	ldr	r3, [r7, #16]
 8001d42:	1ad3      	subs	r3, r2, r3
 8001d44:	2b02      	cmp	r3, #2
 8001d46:	d901      	bls.n	8001d4c <HAL_RCC_OscConfig+0x240>
        {
          return HAL_TIMEOUT;
 8001d48:	2303      	movs	r3, #3
 8001d4a:	e14d      	b.n	8001fe8 <HAL_RCC_OscConfig+0x4dc>
      while(__HAL_RCC_GET_FLAG(RCC_FLAG_LSIRDY) != RESET)
 8001d4c:	4b1a      	ldr	r3, [pc, #104]	; (8001db8 <HAL_RCC_OscConfig+0x2ac>)
 8001d4e:	6f5b      	ldr	r3, [r3, #116]	; 0x74
 8001d50:	f003 0302 	and.w	r3, r3, #2
 8001d54:	2b00      	cmp	r3, #0
 8001d56:	d1f0      	bne.n	8001d3a <HAL_RCC_OscConfig+0x22e>
        }
      }
    }
  }
  /*------------------------------ LSE Configuration -------------------------*/
  if(((RCC_OscInitStruct->OscillatorType) & RCC_OSCILLATORTYPE_LSE) == RCC_OSCILLATORTYPE_LSE)
 8001d58:	687b      	ldr	r3, [r7, #4]
 8001d5a:	681b      	ldr	r3, [r3, #0]
 8001d5c:	f003 0304 	and.w	r3, r3, #4
 8001d60:	2b00      	cmp	r3, #0
 8001d62:	f000 80a0 	beq.w	8001ea6 <HAL_RCC_OscConfig+0x39a>
  {
    FlagStatus       pwrclkchanged = RESET;
 8001d66:	2300      	movs	r3, #0
 8001d68:	75fb      	strb	r3, [r7, #23]
    /* Check the parameters */
    assert_param(IS_RCC_LSE(RCC_OscInitStruct->LSEState));

    /* Update LSE configuration in Backup Domain control register    */
    /* Requires to enable write access to Backup Domain of necessary */
    if(__HAL_RCC_PWR_IS_CLK_DISABLED())
 8001d6a:	4b13      	ldr	r3, [pc, #76]	; (8001db8 <HAL_RCC_OscConfig+0x2ac>)
 8001d6c:	6c1b      	ldr	r3, [r3, #64]	; 0x40
 8001d6e:	f003 5380 	and.w	r3, r3, #268435456	; 0x10000000
 8001d72:	2b00      	cmp	r3, #0
 8001d74:	d10f      	bne.n	8001d96 <HAL_RCC_OscConfig+0x28a>
    {
      __HAL_RCC_PWR_CLK_ENABLE();
 8001d76:	2300      	movs	r3, #0
 8001d78:	60bb      	str	r3, [r7, #8]
 8001d7a:	4b0f      	ldr	r3, [pc, #60]	; (8001db8 <HAL_RCC_OscConfig+0x2ac>)
 8001d7c:	6c1b      	ldr	r3, [r3, #64]	; 0x40
 8001d7e:	4a0e      	ldr	r2, [pc, #56]	; (8001db8 <HAL_RCC_OscConfig+0x2ac>)
 8001d80:	f043 5380 	orr.w	r3, r3, #268435456	; 0x10000000
 8001d84:	6413      	str	r3, [r2, #64]	; 0x40
 8001d86:	4b0c      	ldr	r3, [pc, #48]	; (8001db8 <HAL_RCC_OscConfig+0x2ac>)
 8001d88:	6c1b      	ldr	r3, [r3, #64]	; 0x40
 8001d8a:	f003 5380 	and.w	r3, r3, #268435456	; 0x10000000
 8001d8e:	60bb      	str	r3, [r7, #8]
 8001d90:	68bb      	ldr	r3, [r7, #8]
      pwrclkchanged = SET;
 8001d92:	2301      	movs	r3, #1
 8001d94:	75fb      	strb	r3, [r7, #23]
    }

    if(HAL_IS_BIT_CLR(PWR->CR, PWR_CR_DBP))
 8001d96:	4b0b      	ldr	r3, [pc, #44]	; (8001dc4 <HAL_RCC_OscConfig+0x2b8>)
 8001d98:	681b      	ldr	r3, [r3, #0]
 8001d9a:	f403 7380 	and.w	r3, r3, #256	; 0x100
 8001d9e:	2b00      	cmp	r3, #0
 8001da0:	d121      	bne.n	8001de6 <HAL_RCC_OscConfig+0x2da>
    {
      /* Enable write access to Backup domain */
      SET_BIT(PWR->CR, PWR_CR_DBP);
 8001da2:	4b08      	ldr	r3, [pc, #32]	; (8001dc4 <HAL_RCC_OscConfig+0x2b8>)
 8001da4:	681b      	ldr	r3, [r3, #0]
 8001da6:	4a07      	ldr	r2, [pc, #28]	; (8001dc4 <HAL_RCC_OscConfig+0x2b8>)
 8001da8:	f443 7380 	orr.w	r3, r3, #256	; 0x100
 8001dac:	6013      	str	r3, [r2, #0]

      /* Wait for Backup domain Write protection disable */
      tickstart = HAL_GetTick();
 8001dae:	f7fe fdf1 	bl	8000994 <HAL_GetTick>
 8001db2:	6138      	str	r0, [r7, #16]

      while(HAL_IS_BIT_CLR(PWR->CR, PWR_CR_DBP))
 8001db4:	e011      	b.n	8001dda <HAL_RCC_OscConfig+0x2ce>
 8001db6:	bf00      	nop
 8001db8:	40023800 	.word	0x40023800
 8001dbc:	42470000 	.word	0x42470000
 8001dc0:	42470e80 	.word	0x42470e80
 8001dc4:	40007000 	.word	0x40007000
      {
        if((HAL_GetTick() - tickstart) > RCC_DBP_TIMEOUT_VALUE)
 8001dc8:	f7fe fde4 	bl	8000994 <HAL_GetTick>
 8001dcc:	4602      	mov	r2, r0
 8001dce:	693b      	ldr	r3, [r7, #16]
 8001dd0:	1ad3      	subs	r3, r2, r3
 8001dd2:	2b02      	cmp	r3, #2
 8001dd4:	d901      	bls.n	8001dda <HAL_RCC_OscConfig+0x2ce>
        {
          return HAL_TIMEOUT;
 8001dd6:	2303      	movs	r3, #3
 8001dd8:	e106      	b.n	8001fe8 <HAL_RCC_OscConfig+0x4dc>
      while(HAL_IS_BIT_CLR(PWR->CR, PWR_CR_DBP))
 8001dda:	4b85      	ldr	r3, [pc, #532]	; (8001ff0 <HAL_RCC_OscConfig+0x4e4>)
 8001ddc:	681b      	ldr	r3, [r3, #0]
 8001dde:	f403 7380 	and.w	r3, r3, #256	; 0x100
 8001de2:	2b00      	cmp	r3, #0
 8001de4:	d0f0      	beq.n	8001dc8 <HAL_RCC_OscConfig+0x2bc>
        }
      }
    }

    /* Set the new LSE configuration -----------------------------------------*/
    __HAL_RCC_LSE_CONFIG(RCC_OscInitStruct->LSEState);
 8001de6:	687b      	ldr	r3, [r7, #4]
 8001de8:	689b      	ldr	r3, [r3, #8]
 8001dea:	2b01      	cmp	r3, #1
 8001dec:	d106      	bne.n	8001dfc <HAL_RCC_OscConfig+0x2f0>
 8001dee:	4b81      	ldr	r3, [pc, #516]	; (8001ff4 <HAL_RCC_OscConfig+0x4e8>)
 8001df0:	6f1b      	ldr	r3, [r3, #112]	; 0x70
 8001df2:	4a80      	ldr	r2, [pc, #512]	; (8001ff4 <HAL_RCC_OscConfig+0x4e8>)
 8001df4:	f043 0301 	orr.w	r3, r3, #1
 8001df8:	6713      	str	r3, [r2, #112]	; 0x70
 8001dfa:	e01c      	b.n	8001e36 <HAL_RCC_OscConfig+0x32a>
 8001dfc:	687b      	ldr	r3, [r7, #4]
 8001dfe:	689b      	ldr	r3, [r3, #8]
 8001e00:	2b05      	cmp	r3, #5
 8001e02:	d10c      	bne.n	8001e1e <HAL_RCC_OscConfig+0x312>
 8001e04:	4b7b      	ldr	r3, [pc, #492]	; (8001ff4 <HAL_RCC_OscConfig+0x4e8>)
 8001e06:	6f1b      	ldr	r3, [r3, #112]	; 0x70
 8001e08:	4a7a      	ldr	r2, [pc, #488]	; (8001ff4 <HAL_RCC_OscConfig+0x4e8>)
 8001e0a:	f043 0304 	orr.w	r3, r3, #4
 8001e0e:	6713      	str	r3, [r2, #112]	; 0x70
 8001e10:	4b78      	ldr	r3, [pc, #480]	; (8001ff4 <HAL_RCC_OscConfig+0x4e8>)
 8001e12:	6f1b      	ldr	r3, [r3, #112]	; 0x70
 8001e14:	4a77      	ldr	r2, [pc, #476]	; (8001ff4 <HAL_RCC_OscConfig+0x4e8>)
 8001e16:	f043 0301 	orr.w	r3, r3, #1
 8001e1a:	6713      	str	r3, [r2, #112]	; 0x70
 8001e1c:	e00b      	b.n	8001e36 <HAL_RCC_OscConfig+0x32a>
 8001e1e:	4b75      	ldr	r3, [pc, #468]	; (8001ff4 <HAL_RCC_OscConfig+0x4e8>)
 8001e20:	6f1b      	ldr	r3, [r3, #112]	; 0x70
 8001e22:	4a74      	ldr	r2, [pc, #464]	; (8001ff4 <HAL_RCC_OscConfig+0x4e8>)
 8001e24:	f023 0301 	bic.w	r3, r3, #1
 8001e28:	6713      	str	r3, [r2, #112]	; 0x70
 8001e2a:	4b72      	ldr	r3, [pc, #456]	; (8001ff4 <HAL_RCC_OscConfig+0x4e8>)
 8001e2c:	6f1b      	ldr	r3, [r3, #112]	; 0x70
 8001e2e:	4a71      	ldr	r2, [pc, #452]	; (8001ff4 <HAL_RCC_OscConfig+0x4e8>)
 8001e30:	f023 0304 	bic.w	r3, r3, #4
 8001e34:	6713      	str	r3, [r2, #112]	; 0x70
    /* Check the LSE State */
    if((RCC_OscInitStruct->LSEState) != RCC_LSE_OFF)
 8001e36:	687b      	ldr	r3, [r7, #4]
 8001e38:	689b      	ldr	r3, [r3, #8]
 8001e3a:	2b00      	cmp	r3, #0
 8001e3c:	d015      	beq.n	8001e6a <HAL_RCC_OscConfig+0x35e>
    {
      /* Get Start Tick*/
      tickstart = HAL_GetTick();
 8001e3e:	f7fe fda9 	bl	8000994 <HAL_GetTick>
 8001e42:	6138      	str	r0, [r7, #16]

      /* Wait till LSE is ready */
      while(__HAL_RCC_GET_FLAG(RCC_FLAG_LSERDY) == RESET)
 8001e44:	e00a      	b.n	8001e5c <HAL_RCC_OscConfig+0x350>
      {
        if((HAL_GetTick() - tickstart ) > RCC_LSE_TIMEOUT_VALUE)
 8001e46:	f7fe fda5 	bl	8000994 <HAL_GetTick>
 8001e4a:	4602      	mov	r2, r0
 8001e4c:	693b      	ldr	r3, [r7, #16]
 8001e4e:	1ad3      	subs	r3, r2, r3
 8001e50:	f241 3288 	movw	r2, #5000	; 0x1388
 8001e54:	4293      	cmp	r3, r2
 8001e56:	d901      	bls.n	8001e5c <HAL_RCC_OscConfig+0x350>
        {
          return HAL_TIMEOUT;
 8001e58:	2303      	movs	r3, #3
 8001e5a:	e0c5      	b.n	8001fe8 <HAL_RCC_OscConfig+0x4dc>
      while(__HAL_RCC_GET_FLAG(RCC_FLAG_LSERDY) == RESET)
 8001e5c:	4b65      	ldr	r3, [pc, #404]	; (8001ff4 <HAL_RCC_OscConfig+0x4e8>)
 8001e5e:	6f1b      	ldr	r3, [r3, #112]	; 0x70
 8001e60:	f003 0302 	and.w	r3, r3, #2
 8001e64:	2b00      	cmp	r3, #0
 8001e66:	d0ee      	beq.n	8001e46 <HAL_RCC_OscConfig+0x33a>
 8001e68:	e014      	b.n	8001e94 <HAL_RCC_OscConfig+0x388>
      }
    }
    else
    {
      /* Get Start Tick */
      tickstart = HAL_GetTick();
 8001e6a:	f7fe fd93 	bl	8000994 <HAL_GetTick>
 8001e6e:	6138      	str	r0, [r7, #16]

      /* Wait till LSE is ready */
      while(__HAL_RCC_GET_FLAG(RCC_FLAG_LSERDY) != RESET)
 8001e70:	e00a      	b.n	8001e88 <HAL_RCC_OscConfig+0x37c>
      {
        if((HAL_GetTick() - tickstart ) > RCC_LSE_TIMEOUT_VALUE)
 8001e72:	f7fe fd8f 	bl	8000994 <HAL_GetTick>
 8001e76:	4602      	mov	r2, r0
 8001e78:	693b      	ldr	r3, [r7, #16]
 8001e7a:	1ad3      	subs	r3, r2, r3
 8001e7c:	f241 3288 	movw	r2, #5000	; 0x1388
 8001e80:	4293      	cmp	r3, r2
 8001e82:	d901      	bls.n	8001e88 <HAL_RCC_OscConfig+0x37c>
        {
          return HAL_TIMEOUT;
 8001e84:	2303      	movs	r3, #3
 8001e86:	e0af      	b.n	8001fe8 <HAL_RCC_OscConfig+0x4dc>
      while(__HAL_RCC_GET_FLAG(RCC_FLAG_LSERDY) != RESET)
 8001e88:	4b5a      	ldr	r3, [pc, #360]	; (8001ff4 <HAL_RCC_OscConfig+0x4e8>)
 8001e8a:	6f1b      	ldr	r3, [r3, #112]	; 0x70
 8001e8c:	f003 0302 	and.w	r3, r3, #2
 8001e90:	2b00      	cmp	r3, #0
 8001e92:	d1ee      	bne.n	8001e72 <HAL_RCC_OscConfig+0x366>
        }
      }
    }

    /* Restore clock configuration if changed */
    if(pwrclkchanged == SET)
 8001e94:	7dfb      	ldrb	r3, [r7, #23]
 8001e96:	2b01      	cmp	r3, #1
 8001e98:	d105      	bne.n	8001ea6 <HAL_RCC_OscConfig+0x39a>
    {
      __HAL_RCC_PWR_CLK_DISABLE();
 8001e9a:	4b56      	ldr	r3, [pc, #344]	; (8001ff4 <HAL_RCC_OscConfig+0x4e8>)
 8001e9c:	6c1b      	ldr	r3, [r3, #64]	; 0x40
 8001e9e:	4a55      	ldr	r2, [pc, #340]	; (8001ff4 <HAL_RCC_OscConfig+0x4e8>)
 8001ea0:	f023 5380 	bic.w	r3, r3, #268435456	; 0x10000000
 8001ea4:	6413      	str	r3, [r2, #64]	; 0x40
    }
  }
  /*-------------------------------- PLL Configuration -----------------------*/
  /* Check the parameters */
  assert_param(IS_RCC_PLL(RCC_OscInitStruct->PLL.PLLState));
  if ((RCC_OscInitStruct->PLL.PLLState) != RCC_PLL_NONE)
 8001ea6:	687b      	ldr	r3, [r7, #4]
 8001ea8:	699b      	ldr	r3, [r3, #24]
 8001eaa:	2b00      	cmp	r3, #0
 8001eac:	f000 809b 	beq.w	8001fe6 <HAL_RCC_OscConfig+0x4da>
  {
    /* Check if the PLL is used as system clock or not */
    if(__HAL_RCC_GET_SYSCLK_SOURCE() != RCC_CFGR_SWS_PLL)
 8001eb0:	4b50      	ldr	r3, [pc, #320]	; (8001ff4 <HAL_RCC_OscConfig+0x4e8>)
 8001eb2:	689b      	ldr	r3, [r3, #8]
 8001eb4:	f003 030c 	and.w	r3, r3, #12
 8001eb8:	2b08      	cmp	r3, #8
 8001eba:	d05c      	beq.n	8001f76 <HAL_RCC_OscConfig+0x46a>
    {
      if((RCC_OscInitStruct->PLL.PLLState) == RCC_PLL_ON)
 8001ebc:	687b      	ldr	r3, [r7, #4]
 8001ebe:	699b      	ldr	r3, [r3, #24]
 8001ec0:	2b02      	cmp	r3, #2
 8001ec2:	d141      	bne.n	8001f48 <HAL_RCC_OscConfig+0x43c>
        assert_param(IS_RCC_PLLN_VALUE(RCC_OscInitStruct->PLL.PLLN));
        assert_param(IS_RCC_PLLP_VALUE(RCC_OscInitStruct->PLL.PLLP));
        assert_param(IS_RCC_PLLQ_VALUE(RCC_OscInitStruct->PLL.PLLQ));

        /* Disable the main PLL. */
        __HAL_RCC_PLL_DISABLE();
 8001ec4:	4b4c      	ldr	r3, [pc, #304]	; (8001ff8 <HAL_RCC_OscConfig+0x4ec>)
 8001ec6:	2200      	movs	r2, #0
 8001ec8:	601a      	str	r2, [r3, #0]

        /* Get Start Tick */
        tickstart = HAL_GetTick();
 8001eca:	f7fe fd63 	bl	8000994 <HAL_GetTick>
 8001ece:	6138      	str	r0, [r7, #16]

        /* Wait till PLL is ready */
        while(__HAL_RCC_GET_FLAG(RCC_FLAG_PLLRDY) != RESET)
 8001ed0:	e008      	b.n	8001ee4 <HAL_RCC_OscConfig+0x3d8>
        {
          if((HAL_GetTick() - tickstart ) > PLL_TIMEOUT_VALUE)
 8001ed2:	f7fe fd5f 	bl	8000994 <HAL_GetTick>
 8001ed6:	4602      	mov	r2, r0
 8001ed8:	693b      	ldr	r3, [r7, #16]
 8001eda:	1ad3      	subs	r3, r2, r3
 8001edc:	2b02      	cmp	r3, #2
 8001ede:	d901      	bls.n	8001ee4 <HAL_RCC_OscConfig+0x3d8>
          {
            return HAL_TIMEOUT;
 8001ee0:	2303      	movs	r3, #3
 8001ee2:	e081      	b.n	8001fe8 <HAL_RCC_OscConfig+0x4dc>
        while(__HAL_RCC_GET_FLAG(RCC_FLAG_PLLRDY) != RESET)
 8001ee4:	4b43      	ldr	r3, [pc, #268]	; (8001ff4 <HAL_RCC_OscConfig+0x4e8>)
 8001ee6:	681b      	ldr	r3, [r3, #0]
 8001ee8:	f003 7300 	and.w	r3, r3, #33554432	; 0x2000000
 8001eec:	2b00      	cmp	r3, #0
 8001eee:	d1f0      	bne.n	8001ed2 <HAL_RCC_OscConfig+0x3c6>
          }
        }

        /* Configure the main PLL clock source, multiplication and division factors. */
        WRITE_REG(RCC->PLLCFGR, (RCC_OscInitStruct->PLL.PLLSource                                            | \
 8001ef0:	687b      	ldr	r3, [r7, #4]
 8001ef2:	69da      	ldr	r2, [r3, #28]
 8001ef4:	687b      	ldr	r3, [r7, #4]
 8001ef6:	6a1b      	ldr	r3, [r3, #32]
 8001ef8:	431a      	orrs	r2, r3
 8001efa:	687b      	ldr	r3, [r7, #4]
 8001efc:	6a5b      	ldr	r3, [r3, #36]	; 0x24
 8001efe:	019b      	lsls	r3, r3, #6
 8001f00:	431a      	orrs	r2, r3
 8001f02:	687b      	ldr	r3, [r7, #4]
 8001f04:	6a9b      	ldr	r3, [r3, #40]	; 0x28
 8001f06:	085b      	lsrs	r3, r3, #1
 8001f08:	3b01      	subs	r3, #1
 8001f0a:	041b      	lsls	r3, r3, #16
 8001f0c:	431a      	orrs	r2, r3
 8001f0e:	687b      	ldr	r3, [r7, #4]
 8001f10:	6adb      	ldr	r3, [r3, #44]	; 0x2c
 8001f12:	061b      	lsls	r3, r3, #24
 8001f14:	4937      	ldr	r1, [pc, #220]	; (8001ff4 <HAL_RCC_OscConfig+0x4e8>)
 8001f16:	4313      	orrs	r3, r2
 8001f18:	604b      	str	r3, [r1, #4]
                                 RCC_OscInitStruct->PLL.PLLM                                                 | \
                                 (RCC_OscInitStruct->PLL.PLLN << RCC_PLLCFGR_PLLN_Pos)             | \
                                 (((RCC_OscInitStruct->PLL.PLLP >> 1U) - 1U) << RCC_PLLCFGR_PLLP_Pos) | \
                                 (RCC_OscInitStruct->PLL.PLLQ << RCC_PLLCFGR_PLLQ_Pos)));
        /* Enable the main PLL. */
        __HAL_RCC_PLL_ENABLE();
 8001f1a:	4b37      	ldr	r3, [pc, #220]	; (8001ff8 <HAL_RCC_OscConfig+0x4ec>)
 8001f1c:	2201      	movs	r2, #1
 8001f1e:	601a      	str	r2, [r3, #0]

        /* Get Start Tick */
        tickstart = HAL_GetTick();
 8001f20:	f7fe fd38 	bl	8000994 <HAL_GetTick>
 8001f24:	6138      	str	r0, [r7, #16]

        /* Wait till PLL is ready */
        while(__HAL_RCC_GET_FLAG(RCC_FLAG_PLLRDY) == RESET)
 8001f26:	e008      	b.n	8001f3a <HAL_RCC_OscConfig+0x42e>
        {
          if((HAL_GetTick() - tickstart ) > PLL_TIMEOUT_VALUE)
 8001f28:	f7fe fd34 	bl	8000994 <HAL_GetTick>
 8001f2c:	4602      	mov	r2, r0
 8001f2e:	693b      	ldr	r3, [r7, #16]
 8001f30:	1ad3      	subs	r3, r2, r3
 8001f32:	2b02      	cmp	r3, #2
 8001f34:	d901      	bls.n	8001f3a <HAL_RCC_OscConfig+0x42e>
          {
            return HAL_TIMEOUT;
 8001f36:	2303      	movs	r3, #3
 8001f38:	e056      	b.n	8001fe8 <HAL_RCC_OscConfig+0x4dc>
        while(__HAL_RCC_GET_FLAG(RCC_FLAG_PLLRDY) == RESET)
 8001f3a:	4b2e      	ldr	r3, [pc, #184]	; (8001ff4 <HAL_RCC_OscConfig+0x4e8>)
 8001f3c:	681b      	ldr	r3, [r3, #0]
 8001f3e:	f003 7300 	and.w	r3, r3, #33554432	; 0x2000000
 8001f42:	2b00      	cmp	r3, #0
 8001f44:	d0f0      	beq.n	8001f28 <HAL_RCC_OscConfig+0x41c>
 8001f46:	e04e      	b.n	8001fe6 <HAL_RCC_OscConfig+0x4da>
        }
      }
      else
      {
        /* Disable the main PLL. */
        __HAL_RCC_PLL_DISABLE();
 8001f48:	4b2b      	ldr	r3, [pc, #172]	; (8001ff8 <HAL_RCC_OscConfig+0x4ec>)
 8001f4a:	2200      	movs	r2, #0
 8001f4c:	601a      	str	r2, [r3, #0]

        /* Get Start Tick */
        tickstart = HAL_GetTick();
 8001f4e:	f7fe fd21 	bl	8000994 <HAL_GetTick>
 8001f52:	6138      	str	r0, [r7, #16]

        /* Wait till PLL is ready */
        while(__HAL_RCC_GET_FLAG(RCC_FLAG_PLLRDY) != RESET)
 8001f54:	e008      	b.n	8001f68 <HAL_RCC_OscConfig+0x45c>
        {
          if((HAL_GetTick() - tickstart ) > PLL_TIMEOUT_VALUE)
 8001f56:	f7fe fd1d 	bl	8000994 <HAL_GetTick>
 8001f5a:	4602      	mov	r2, r0
 8001f5c:	693b      	ldr	r3, [r7, #16]
 8001f5e:	1ad3      	subs	r3, r2, r3
 8001f60:	2b02      	cmp	r3, #2
 8001f62:	d901      	bls.n	8001f68 <HAL_RCC_OscConfig+0x45c>
          {
            return HAL_TIMEOUT;
 8001f64:	2303      	movs	r3, #3
 8001f66:	e03f      	b.n	8001fe8 <HAL_RCC_OscConfig+0x4dc>
        while(__HAL_RCC_GET_FLAG(RCC_FLAG_PLLRDY) != RESET)
 8001f68:	4b22      	ldr	r3, [pc, #136]	; (8001ff4 <HAL_RCC_OscConfig+0x4e8>)
 8001f6a:	681b      	ldr	r3, [r3, #0]
 8001f6c:	f003 7300 	and.w	r3, r3, #33554432	; 0x2000000
 8001f70:	2b00      	cmp	r3, #0
 8001f72:	d1f0      	bne.n	8001f56 <HAL_RCC_OscConfig+0x44a>
 8001f74:	e037      	b.n	8001fe6 <HAL_RCC_OscConfig+0x4da>
      }
    }
    else
    {
      /* Check if there is a request to disable the PLL used as System clock source */
      if((RCC_OscInitStruct->PLL.PLLState) == RCC_PLL_OFF)
 8001f76:	687b      	ldr	r3, [r7, #4]
 8001f78:	699b      	ldr	r3, [r3, #24]
 8001f7a:	2b01      	cmp	r3, #1
 8001f7c:	d101      	bne.n	8001f82 <HAL_RCC_OscConfig+0x476>
      {
        return HAL_ERROR;
 8001f7e:	2301      	movs	r3, #1
 8001f80:	e032      	b.n	8001fe8 <HAL_RCC_OscConfig+0x4dc>
      }
      else
      {
        /* Do not return HAL_ERROR if request repeats the current configuration */
        pll_config = RCC->PLLCFGR;
 8001f82:	4b1c      	ldr	r3, [pc, #112]	; (8001ff4 <HAL_RCC_OscConfig+0x4e8>)
 8001f84:	685b      	ldr	r3, [r3, #4]
 8001f86:	60fb      	str	r3, [r7, #12]
            (READ_BIT(pll_config, RCC_PLLCFGR_PLLN) != (RCC_OscInitStruct->PLL.PLLN) << RCC_PLLCFGR_PLLN_Pos) ||
            (READ_BIT(pll_config, RCC_PLLCFGR_PLLP) != (((RCC_OscInitStruct->PLL.PLLP >> 1U) - 1U)) << RCC_PLLCFGR_PLLP_Pos) ||
            (READ_BIT(pll_config, RCC_PLLCFGR_PLLQ) != (RCC_OscInitStruct->PLL.PLLQ << RCC_PLLCFGR_PLLQ_Pos)) ||
            (READ_BIT(pll_config, RCC_PLLCFGR_PLLR) != (RCC_OscInitStruct->PLL.PLLR << RCC_PLLCFGR_PLLR_Pos)))
#else
        if (((RCC_OscInitStruct->PLL.PLLState) == RCC_PLL_OFF) ||
 8001f88:	687b      	ldr	r3, [r7, #4]
 8001f8a:	699b      	ldr	r3, [r3, #24]
 8001f8c:	2b01      	cmp	r3, #1
 8001f8e:	d028      	beq.n	8001fe2 <HAL_RCC_OscConfig+0x4d6>
            (READ_BIT(pll_config, RCC_PLLCFGR_PLLSRC) != RCC_OscInitStruct->PLL.PLLSource) ||
 8001f90:	68fb      	ldr	r3, [r7, #12]
 8001f92:	f403 0280 	and.w	r2, r3, #4194304	; 0x400000
 8001f96:	687b      	ldr	r3, [r7, #4]
 8001f98:	69db      	ldr	r3, [r3, #28]
        if (((RCC_OscInitStruct->PLL.PLLState) == RCC_PLL_OFF) ||
 8001f9a:	429a      	cmp	r2, r3
 8001f9c:	d121      	bne.n	8001fe2 <HAL_RCC_OscConfig+0x4d6>
            (READ_BIT(pll_config, RCC_PLLCFGR_PLLM) != (RCC_OscInitStruct->PLL.PLLM) << RCC_PLLCFGR_PLLM_Pos) ||
 8001f9e:	68fb      	ldr	r3, [r7, #12]
 8001fa0:	f003 023f 	and.w	r2, r3, #63	; 0x3f
 8001fa4:	687b      	ldr	r3, [r7, #4]
 8001fa6:	6a1b      	ldr	r3, [r3, #32]
            (READ_BIT(pll_config, RCC_PLLCFGR_PLLSRC) != RCC_OscInitStruct->PLL.PLLSource) ||
 8001fa8:	429a      	cmp	r2, r3
 8001faa:	d11a      	bne.n	8001fe2 <HAL_RCC_OscConfig+0x4d6>
            (READ_BIT(pll_config, RCC_PLLCFGR_PLLN) != (RCC_OscInitStruct->PLL.PLLN) << RCC_PLLCFGR_PLLN_Pos) ||
 8001fac:	68fa      	ldr	r2, [r7, #12]
 8001fae:	f647 73c0 	movw	r3, #32704	; 0x7fc0
 8001fb2:	4013      	ands	r3, r2
 8001fb4:	687a      	ldr	r2, [r7, #4]
 8001fb6:	6a52      	ldr	r2, [r2, #36]	; 0x24
 8001fb8:	0192      	lsls	r2, r2, #6
            (READ_BIT(pll_config, RCC_PLLCFGR_PLLM) != (RCC_OscInitStruct->PLL.PLLM) << RCC_PLLCFGR_PLLM_Pos) ||
 8001fba:	4293      	cmp	r3, r2
 8001fbc:	d111      	bne.n	8001fe2 <HAL_RCC_OscConfig+0x4d6>
            (READ_BIT(pll_config, RCC_PLLCFGR_PLLP) != (((RCC_OscInitStruct->PLL.PLLP >> 1U) - 1U)) << RCC_PLLCFGR_PLLP_Pos) ||
 8001fbe:	68fb      	ldr	r3, [r7, #12]
 8001fc0:	f403 3240 	and.w	r2, r3, #196608	; 0x30000
 8001fc4:	687b      	ldr	r3, [r7, #4]
 8001fc6:	6a9b      	ldr	r3, [r3, #40]	; 0x28
 8001fc8:	085b      	lsrs	r3, r3, #1
 8001fca:	3b01      	subs	r3, #1
 8001fcc:	041b      	lsls	r3, r3, #16
            (READ_BIT(pll_config, RCC_PLLCFGR_PLLN) != (RCC_OscInitStruct->PLL.PLLN) << RCC_PLLCFGR_PLLN_Pos) ||
 8001fce:	429a      	cmp	r2, r3
 8001fd0:	d107      	bne.n	8001fe2 <HAL_RCC_OscConfig+0x4d6>
            (READ_BIT(pll_config, RCC_PLLCFGR_PLLQ) != (RCC_OscInitStruct->PLL.PLLQ << RCC_PLLCFGR_PLLQ_Pos)))
 8001fd2:	68fb      	ldr	r3, [r7, #12]
 8001fd4:	f003 6270 	and.w	r2, r3, #251658240	; 0xf000000
 8001fd8:	687b      	ldr	r3, [r7, #4]
 8001fda:	6adb      	ldr	r3, [r3, #44]	; 0x2c
 8001fdc:	061b      	lsls	r3, r3, #24
            (READ_BIT(pll_config, RCC_PLLCFGR_PLLP) != (((RCC_OscInitStruct->PLL.PLLP >> 1U) - 1U)) << RCC_PLLCFGR_PLLP_Pos) ||
 8001fde:	429a      	cmp	r2, r3
 8001fe0:	d001      	beq.n	8001fe6 <HAL_RCC_OscConfig+0x4da>
#endif
        {
          return HAL_ERROR;
 8001fe2:	2301      	movs	r3, #1
 8001fe4:	e000      	b.n	8001fe8 <HAL_RCC_OscConfig+0x4dc>
        }
      }
    }
  }
  return HAL_OK;
 8001fe6:	2300      	movs	r3, #0
}
 8001fe8:	4618      	mov	r0, r3
 8001fea:	3718      	adds	r7, #24
 8001fec:	46bd      	mov	sp, r7
 8001fee:	bd80      	pop	{r7, pc}
 8001ff0:	40007000 	.word	0x40007000
 8001ff4:	40023800 	.word	0x40023800
 8001ff8:	42470060 	.word	0x42470060

08001ffc <HAL_RCC_ClockConfig>:
  *         HPRE[3:0] bits to ensure that HCLK not exceed the maximum allowed frequency
  *         (for more details refer to section above "Initialization/de-initialization functions")
  * @retval None
  */
HAL_StatusTypeDef HAL_RCC_ClockConfig(RCC_ClkInitTypeDef  *RCC_ClkInitStruct, uint32_t FLatency)
{
 8001ffc:	b580      	push	{r7, lr}
 8001ffe:	b084      	sub	sp, #16
 8002000:	af00      	add	r7, sp, #0
 8002002:	6078      	str	r0, [r7, #4]
 8002004:	6039      	str	r1, [r7, #0]
  uint32_t tickstart;

  /* Check Null pointer */
  if(RCC_ClkInitStruct == NULL)
 8002006:	687b      	ldr	r3, [r7, #4]
 8002008:	2b00      	cmp	r3, #0
 800200a:	d101      	bne.n	8002010 <HAL_RCC_ClockConfig+0x14>
  {
    return HAL_ERROR;
 800200c:	2301      	movs	r3, #1
 800200e:	e0cc      	b.n	80021aa <HAL_RCC_ClockConfig+0x1ae>
  /* To correctly read data from FLASH memory, the number of wait states (LATENCY)
    must be correctly programmed according to the frequency of the CPU clock
    (HCLK) and the supply voltage of the device. */

  /* Increasing the number of wait states because of higher CPU frequency */
  if(FLatency > __HAL_FLASH_GET_LATENCY())
 8002010:	4b68      	ldr	r3, [pc, #416]	; (80021b4 <HAL_RCC_ClockConfig+0x1b8>)
 8002012:	681b      	ldr	r3, [r3, #0]
 8002014:	f003 0307 	and.w	r3, r3, #7
 8002018:	683a      	ldr	r2, [r7, #0]
 800201a:	429a      	cmp	r2, r3
 800201c:	d90c      	bls.n	8002038 <HAL_RCC_ClockConfig+0x3c>
  {
    /* Program the new number of wait states to the LATENCY bits in the FLASH_ACR register */
    __HAL_FLASH_SET_LATENCY(FLatency);
 800201e:	4b65      	ldr	r3, [pc, #404]	; (80021b4 <HAL_RCC_ClockConfig+0x1b8>)
 8002020:	683a      	ldr	r2, [r7, #0]
 8002022:	b2d2      	uxtb	r2, r2
 8002024:	701a      	strb	r2, [r3, #0]

    /* Check that the new number of wait states is taken into account to access the Flash
    memory by reading the FLASH_ACR register */
    if(__HAL_FLASH_GET_LATENCY() != FLatency)
 8002026:	4b63      	ldr	r3, [pc, #396]	; (80021b4 <HAL_RCC_ClockConfig+0x1b8>)
 8002028:	681b      	ldr	r3, [r3, #0]
 800202a:	f003 0307 	and.w	r3, r3, #7
 800202e:	683a      	ldr	r2, [r7, #0]
 8002030:	429a      	cmp	r2, r3
 8002032:	d001      	beq.n	8002038 <HAL_RCC_ClockConfig+0x3c>
    {
      return HAL_ERROR;
 8002034:	2301      	movs	r3, #1
 8002036:	e0b8      	b.n	80021aa <HAL_RCC_ClockConfig+0x1ae>
    }
  }

  /*-------------------------- HCLK Configuration --------------------------*/
  if(((RCC_ClkInitStruct->ClockType) & RCC_CLOCKTYPE_HCLK) == RCC_CLOCKTYPE_HCLK)
 8002038:	687b      	ldr	r3, [r7, #4]
 800203a:	681b      	ldr	r3, [r3, #0]
 800203c:	f003 0302 	and.w	r3, r3, #2
 8002040:	2b00      	cmp	r3, #0
 8002042:	d020      	beq.n	8002086 <HAL_RCC_ClockConfig+0x8a>
  {
    /* Set the highest APBx dividers in order to ensure that we do not go through
       a non-spec phase whatever we decrease or increase HCLK. */
    if(((RCC_ClkInitStruct->ClockType) & RCC_CLOCKTYPE_PCLK1) == RCC_CLOCKTYPE_PCLK1)
 8002044:	687b      	ldr	r3, [r7, #4]
 8002046:	681b      	ldr	r3, [r3, #0]
 8002048:	f003 0304 	and.w	r3, r3, #4
 800204c:	2b00      	cmp	r3, #0
 800204e:	d005      	beq.n	800205c <HAL_RCC_ClockConfig+0x60>
    {
      MODIFY_REG(RCC->CFGR, RCC_CFGR_PPRE1, RCC_HCLK_DIV16);
 8002050:	4b59      	ldr	r3, [pc, #356]	; (80021b8 <HAL_RCC_ClockConfig+0x1bc>)
 8002052:	689b      	ldr	r3, [r3, #8]
 8002054:	4a58      	ldr	r2, [pc, #352]	; (80021b8 <HAL_RCC_ClockConfig+0x1bc>)
 8002056:	f443 53e0 	orr.w	r3, r3, #7168	; 0x1c00
 800205a:	6093      	str	r3, [r2, #8]
    }

    if(((RCC_ClkInitStruct->ClockType) & RCC_CLOCKTYPE_PCLK2) == RCC_CLOCKTYPE_PCLK2)
 800205c:	687b      	ldr	r3, [r7, #4]
 800205e:	681b      	ldr	r3, [r3, #0]
 8002060:	f003 0308 	and.w	r3, r3, #8
 8002064:	2b00      	cmp	r3, #0
 8002066:	d005      	beq.n	8002074 <HAL_RCC_ClockConfig+0x78>
    {
      MODIFY_REG(RCC->CFGR, RCC_CFGR_PPRE2, (RCC_HCLK_DIV16 << 3));
 8002068:	4b53      	ldr	r3, [pc, #332]	; (80021b8 <HAL_RCC_ClockConfig+0x1bc>)
 800206a:	689b      	ldr	r3, [r3, #8]
 800206c:	4a52      	ldr	r2, [pc, #328]	; (80021b8 <HAL_RCC_ClockConfig+0x1bc>)
 800206e:	f443 4360 	orr.w	r3, r3, #57344	; 0xe000
 8002072:	6093      	str	r3, [r2, #8]
    }

    assert_param(IS_RCC_HCLK(RCC_ClkInitStruct->AHBCLKDivider));
    MODIFY_REG(RCC->CFGR, RCC_CFGR_HPRE, RCC_ClkInitStruct->AHBCLKDivider);
 8002074:	4b50      	ldr	r3, [pc, #320]	; (80021b8 <HAL_RCC_ClockConfig+0x1bc>)
 8002076:	689b      	ldr	r3, [r3, #8]
 8002078:	f023 02f0 	bic.w	r2, r3, #240	; 0xf0
 800207c:	687b      	ldr	r3, [r7, #4]
 800207e:	689b      	ldr	r3, [r3, #8]
 8002080:	494d      	ldr	r1, [pc, #308]	; (80021b8 <HAL_RCC_ClockConfig+0x1bc>)
 8002082:	4313      	orrs	r3, r2
 8002084:	608b      	str	r3, [r1, #8]
  }

  /*------------------------- SYSCLK Configuration ---------------------------*/
  if(((RCC_ClkInitStruct->ClockType) & RCC_CLOCKTYPE_SYSCLK) == RCC_CLOCKTYPE_SYSCLK)
 8002086:	687b      	ldr	r3, [r7, #4]
 8002088:	681b      	ldr	r3, [r3, #0]
 800208a:	f003 0301 	and.w	r3, r3, #1
 800208e:	2b00      	cmp	r3, #0
 8002090:	d044      	beq.n	800211c <HAL_RCC_ClockConfig+0x120>
  {
    assert_param(IS_RCC_SYSCLKSOURCE(RCC_ClkInitStruct->SYSCLKSource));

    /* HSE is selected as System Clock Source */
    if(RCC_ClkInitStruct->SYSCLKSource == RCC_SYSCLKSOURCE_HSE)
 8002092:	687b      	ldr	r3, [r7, #4]
 8002094:	685b      	ldr	r3, [r3, #4]
 8002096:	2b01      	cmp	r3, #1
 8002098:	d107      	bne.n	80020aa <HAL_RCC_ClockConfig+0xae>
    {
      /* Check the HSE ready flag */
      if(__HAL_RCC_GET_FLAG(RCC_FLAG_HSERDY) == RESET)
 800209a:	4b47      	ldr	r3, [pc, #284]	; (80021b8 <HAL_RCC_ClockConfig+0x1bc>)
 800209c:	681b      	ldr	r3, [r3, #0]
 800209e:	f403 3300 	and.w	r3, r3, #131072	; 0x20000
 80020a2:	2b00      	cmp	r3, #0
 80020a4:	d119      	bne.n	80020da <HAL_RCC_ClockConfig+0xde>
      {
        return HAL_ERROR;
 80020a6:	2301      	movs	r3, #1
 80020a8:	e07f      	b.n	80021aa <HAL_RCC_ClockConfig+0x1ae>
      }
    }
    /* PLL is selected as System Clock Source */
    else if((RCC_ClkInitStruct->SYSCLKSource == RCC_SYSCLKSOURCE_PLLCLK)   ||
 80020aa:	687b      	ldr	r3, [r7, #4]
 80020ac:	685b      	ldr	r3, [r3, #4]
 80020ae:	2b02      	cmp	r3, #2
 80020b0:	d003      	beq.n	80020ba <HAL_RCC_ClockConfig+0xbe>
            (RCC_ClkInitStruct->SYSCLKSource == RCC_SYSCLKSOURCE_PLLRCLK))
 80020b2:	687b      	ldr	r3, [r7, #4]
 80020b4:	685b      	ldr	r3, [r3, #4]
    else if((RCC_ClkInitStruct->SYSCLKSource == RCC_SYSCLKSOURCE_PLLCLK)   ||
 80020b6:	2b03      	cmp	r3, #3
 80020b8:	d107      	bne.n	80020ca <HAL_RCC_ClockConfig+0xce>
    {
      /* Check the PLL ready flag */
      if(__HAL_RCC_GET_FLAG(RCC_FLAG_PLLRDY) == RESET)
 80020ba:	4b3f      	ldr	r3, [pc, #252]	; (80021b8 <HAL_RCC_ClockConfig+0x1bc>)
 80020bc:	681b      	ldr	r3, [r3, #0]
 80020be:	f003 7300 	and.w	r3, r3, #33554432	; 0x2000000
 80020c2:	2b00      	cmp	r3, #0
 80020c4:	d109      	bne.n	80020da <HAL_RCC_ClockConfig+0xde>
      {
        return HAL_ERROR;
 80020c6:	2301      	movs	r3, #1
 80020c8:	e06f      	b.n	80021aa <HAL_RCC_ClockConfig+0x1ae>
    }
    /* HSI is selected as System Clock Source */
    else
    {
      /* Check the HSI ready flag */
      if(__HAL_RCC_GET_FLAG(RCC_FLAG_HSIRDY) == RESET)
 80020ca:	4b3b      	ldr	r3, [pc, #236]	; (80021b8 <HAL_RCC_ClockConfig+0x1bc>)
 80020cc:	681b      	ldr	r3, [r3, #0]
 80020ce:	f003 0302 	and.w	r3, r3, #2
 80020d2:	2b00      	cmp	r3, #0
 80020d4:	d101      	bne.n	80020da <HAL_RCC_ClockConfig+0xde>
      {
        return HAL_ERROR;
 80020d6:	2301      	movs	r3, #1
 80020d8:	e067      	b.n	80021aa <HAL_RCC_ClockConfig+0x1ae>
      }
    }

    __HAL_RCC_SYSCLK_CONFIG(RCC_ClkInitStruct->SYSCLKSource);
 80020da:	4b37      	ldr	r3, [pc, #220]	; (80021b8 <HAL_RCC_ClockConfig+0x1bc>)
 80020dc:	689b      	ldr	r3, [r3, #8]
 80020de:	f023 0203 	bic.w	r2, r3, #3
 80020e2:	687b      	ldr	r3, [r7, #4]
 80020e4:	685b      	ldr	r3, [r3, #4]
 80020e6:	4934      	ldr	r1, [pc, #208]	; (80021b8 <HAL_RCC_ClockConfig+0x1bc>)
 80020e8:	4313      	orrs	r3, r2
 80020ea:	608b      	str	r3, [r1, #8]

    /* Get Start Tick */
    tickstart = HAL_GetTick();
 80020ec:	f7fe fc52 	bl	8000994 <HAL_GetTick>
 80020f0:	60f8      	str	r0, [r7, #12]

    while (__HAL_RCC_GET_SYSCLK_SOURCE() != (RCC_ClkInitStruct->SYSCLKSource << RCC_CFGR_SWS_Pos))
 80020f2:	e00a      	b.n	800210a <HAL_RCC_ClockConfig+0x10e>
    {
      if ((HAL_GetTick() - tickstart) > CLOCKSWITCH_TIMEOUT_VALUE)
 80020f4:	f7fe fc4e 	bl	8000994 <HAL_GetTick>
 80020f8:	4602      	mov	r2, r0
 80020fa:	68fb      	ldr	r3, [r7, #12]
 80020fc:	1ad3      	subs	r3, r2, r3
 80020fe:	f241 3288 	movw	r2, #5000	; 0x1388
 8002102:	4293      	cmp	r3, r2
 8002104:	d901      	bls.n	800210a <HAL_RCC_ClockConfig+0x10e>
      {
        return HAL_TIMEOUT;
 8002106:	2303      	movs	r3, #3
 8002108:	e04f      	b.n	80021aa <HAL_RCC_ClockConfig+0x1ae>
    while (__HAL_RCC_GET_SYSCLK_SOURCE() != (RCC_ClkInitStruct->SYSCLKSource << RCC_CFGR_SWS_Pos))
 800210a:	4b2b      	ldr	r3, [pc, #172]	; (80021b8 <HAL_RCC_ClockConfig+0x1bc>)
 800210c:	689b      	ldr	r3, [r3, #8]
 800210e:	f003 020c 	and.w	r2, r3, #12
 8002112:	687b      	ldr	r3, [r7, #4]
 8002114:	685b      	ldr	r3, [r3, #4]
 8002116:	009b      	lsls	r3, r3, #2
 8002118:	429a      	cmp	r2, r3
 800211a:	d1eb      	bne.n	80020f4 <HAL_RCC_ClockConfig+0xf8>
      }
    }
  }

  /* Decreasing the number of wait states because of lower CPU frequency */
  if(FLatency < __HAL_FLASH_GET_LATENCY())
 800211c:	4b25      	ldr	r3, [pc, #148]	; (80021b4 <HAL_RCC_ClockConfig+0x1b8>)
 800211e:	681b      	ldr	r3, [r3, #0]
 8002120:	f003 0307 	and.w	r3, r3, #7
 8002124:	683a      	ldr	r2, [r7, #0]
 8002126:	429a      	cmp	r2, r3
 8002128:	d20c      	bcs.n	8002144 <HAL_RCC_ClockConfig+0x148>
  {
     /* Program the new number of wait states to the LATENCY bits in the FLASH_ACR register */
    __HAL_FLASH_SET_LATENCY(FLatency);
 800212a:	4b22      	ldr	r3, [pc, #136]	; (80021b4 <HAL_RCC_ClockConfig+0x1b8>)
 800212c:	683a      	ldr	r2, [r7, #0]
 800212e:	b2d2      	uxtb	r2, r2
 8002130:	701a      	strb	r2, [r3, #0]

    /* Check that the new number of wait states is taken into account to access the Flash
    memory by reading the FLASH_ACR register */
    if(__HAL_FLASH_GET_LATENCY() != FLatency)
 8002132:	4b20      	ldr	r3, [pc, #128]	; (80021b4 <HAL_RCC_ClockConfig+0x1b8>)
 8002134:	681b      	ldr	r3, [r3, #0]
 8002136:	f003 0307 	and.w	r3, r3, #7
 800213a:	683a      	ldr	r2, [r7, #0]
 800213c:	429a      	cmp	r2, r3
 800213e:	d001      	beq.n	8002144 <HAL_RCC_ClockConfig+0x148>
    {
      return HAL_ERROR;
 8002140:	2301      	movs	r3, #1
 8002142:	e032      	b.n	80021aa <HAL_RCC_ClockConfig+0x1ae>
    }
  }

  /*-------------------------- PCLK1 Configuration ---------------------------*/
  if(((RCC_ClkInitStruct->ClockType) & RCC_CLOCKTYPE_PCLK1) == RCC_CLOCKTYPE_PCLK1)
 8002144:	687b      	ldr	r3, [r7, #4]
 8002146:	681b      	ldr	r3, [r3, #0]
 8002148:	f003 0304 	and.w	r3, r3, #4
 800214c:	2b00      	cmp	r3, #0
 800214e:	d008      	beq.n	8002162 <HAL_RCC_ClockConfig+0x166>
  {
    assert_param(IS_RCC_PCLK(RCC_ClkInitStruct->APB1CLKDivider));
    MODIFY_REG(RCC->CFGR, RCC_CFGR_PPRE1, RCC_ClkInitStruct->APB1CLKDivider);
 8002150:	4b19      	ldr	r3, [pc, #100]	; (80021b8 <HAL_RCC_ClockConfig+0x1bc>)
 8002152:	689b      	ldr	r3, [r3, #8]
 8002154:	f423 52e0 	bic.w	r2, r3, #7168	; 0x1c00
 8002158:	687b      	ldr	r3, [r7, #4]
 800215a:	68db      	ldr	r3, [r3, #12]
 800215c:	4916      	ldr	r1, [pc, #88]	; (80021b8 <HAL_RCC_ClockConfig+0x1bc>)
 800215e:	4313      	orrs	r3, r2
 8002160:	608b      	str	r3, [r1, #8]
  }

  /*-------------------------- PCLK2 Configuration ---------------------------*/
  if(((RCC_ClkInitStruct->ClockType) & RCC_CLOCKTYPE_PCLK2) == RCC_CLOCKTYPE_PCLK2)
 8002162:	687b      	ldr	r3, [r7, #4]
 8002164:	681b      	ldr	r3, [r3, #0]
 8002166:	f003 0308 	and.w	r3, r3, #8
 800216a:	2b00      	cmp	r3, #0
 800216c:	d009      	beq.n	8002182 <HAL_RCC_ClockConfig+0x186>
  {
    assert_param(IS_RCC_PCLK(RCC_ClkInitStruct->APB2CLKDivider));
    MODIFY_REG(RCC->CFGR, RCC_CFGR_PPRE2, ((RCC_ClkInitStruct->APB2CLKDivider) << 3U));
 800216e:	4b12      	ldr	r3, [pc, #72]	; (80021b8 <HAL_RCC_ClockConfig+0x1bc>)
 8002170:	689b      	ldr	r3, [r3, #8]
 8002172:	f423 4260 	bic.w	r2, r3, #57344	; 0xe000
 8002176:	687b      	ldr	r3, [r7, #4]
 8002178:	691b      	ldr	r3, [r3, #16]
 800217a:	00db      	lsls	r3, r3, #3
 800217c:	490e      	ldr	r1, [pc, #56]	; (80021b8 <HAL_RCC_ClockConfig+0x1bc>)
 800217e:	4313      	orrs	r3, r2
 8002180:	608b      	str	r3, [r1, #8]
  }

  /* Update the SystemCoreClock global variable */
  SystemCoreClock = HAL_RCC_GetSysClockFreq() >> AHBPrescTable[(RCC->CFGR & RCC_CFGR_HPRE)>> RCC_CFGR_HPRE_Pos];
 8002182:	f000 f821 	bl	80021c8 <HAL_RCC_GetSysClockFreq>
 8002186:	4602      	mov	r2, r0
 8002188:	4b0b      	ldr	r3, [pc, #44]	; (80021b8 <HAL_RCC_ClockConfig+0x1bc>)
 800218a:	689b      	ldr	r3, [r3, #8]
 800218c:	091b      	lsrs	r3, r3, #4
 800218e:	f003 030f 	and.w	r3, r3, #15
 8002192:	490a      	ldr	r1, [pc, #40]	; (80021bc <HAL_RCC_ClockConfig+0x1c0>)
 8002194:	5ccb      	ldrb	r3, [r1, r3]
 8002196:	fa22 f303 	lsr.w	r3, r2, r3
 800219a:	4a09      	ldr	r2, [pc, #36]	; (80021c0 <HAL_RCC_ClockConfig+0x1c4>)
 800219c:	6013      	str	r3, [r2, #0]

  /* Configure the source of time base considering new system clocks settings */
  HAL_InitTick (uwTickPrio);
 800219e:	4b09      	ldr	r3, [pc, #36]	; (80021c4 <HAL_RCC_ClockConfig+0x1c8>)
 80021a0:	681b      	ldr	r3, [r3, #0]
 80021a2:	4618      	mov	r0, r3
 80021a4:	f7fe fbb2 	bl	800090c <HAL_InitTick>

  return HAL_OK;
 80021a8:	2300      	movs	r3, #0
}
 80021aa:	4618      	mov	r0, r3
 80021ac:	3710      	adds	r7, #16
 80021ae:	46bd      	mov	sp, r7
 80021b0:	bd80      	pop	{r7, pc}
 80021b2:	bf00      	nop
 80021b4:	40023c00 	.word	0x40023c00
 80021b8:	40023800 	.word	0x40023800
 80021bc:	080023e4 	.word	0x080023e4
 80021c0:	20000000 	.word	0x20000000
 80021c4:	20000004 	.word	0x20000004

080021c8 <HAL_RCC_GetSysClockFreq>:
  *
  *
  * @retval SYSCLK frequency
  */
__weak uint32_t HAL_RCC_GetSysClockFreq(void)
{
 80021c8:	b5b0      	push	{r4, r5, r7, lr}
 80021ca:	b084      	sub	sp, #16
 80021cc:	af00      	add	r7, sp, #0
  uint32_t pllm = 0U, pllvco = 0U, pllp = 0U;
 80021ce:	2100      	movs	r1, #0
 80021d0:	6079      	str	r1, [r7, #4]
 80021d2:	2100      	movs	r1, #0
 80021d4:	60f9      	str	r1, [r7, #12]
 80021d6:	2100      	movs	r1, #0
 80021d8:	6039      	str	r1, [r7, #0]
  uint32_t sysclockfreq = 0U;
 80021da:	2100      	movs	r1, #0
 80021dc:	60b9      	str	r1, [r7, #8]

  /* Get SYSCLK source -------------------------------------------------------*/
  switch (RCC->CFGR & RCC_CFGR_SWS)
 80021de:	4952      	ldr	r1, [pc, #328]	; (8002328 <HAL_RCC_GetSysClockFreq+0x160>)
 80021e0:	6889      	ldr	r1, [r1, #8]
 80021e2:	f001 010c 	and.w	r1, r1, #12
 80021e6:	2908      	cmp	r1, #8
 80021e8:	d00d      	beq.n	8002206 <HAL_RCC_GetSysClockFreq+0x3e>
 80021ea:	2908      	cmp	r1, #8
 80021ec:	f200 8094 	bhi.w	8002318 <HAL_RCC_GetSysClockFreq+0x150>
 80021f0:	2900      	cmp	r1, #0
 80021f2:	d002      	beq.n	80021fa <HAL_RCC_GetSysClockFreq+0x32>
 80021f4:	2904      	cmp	r1, #4
 80021f6:	d003      	beq.n	8002200 <HAL_RCC_GetSysClockFreq+0x38>
 80021f8:	e08e      	b.n	8002318 <HAL_RCC_GetSysClockFreq+0x150>
  {
    case RCC_CFGR_SWS_HSI:  /* HSI used as system clock source */
    {
      sysclockfreq = HSI_VALUE;
 80021fa:	4b4c      	ldr	r3, [pc, #304]	; (800232c <HAL_RCC_GetSysClockFreq+0x164>)
 80021fc:	60bb      	str	r3, [r7, #8]
       break;
 80021fe:	e08e      	b.n	800231e <HAL_RCC_GetSysClockFreq+0x156>
    }
    case RCC_CFGR_SWS_HSE:  /* HSE used as system clock  source */
    {
      sysclockfreq = HSE_VALUE;
 8002200:	4b4b      	ldr	r3, [pc, #300]	; (8002330 <HAL_RCC_GetSysClockFreq+0x168>)
 8002202:	60bb      	str	r3, [r7, #8]
      break;
 8002204:	e08b      	b.n	800231e <HAL_RCC_GetSysClockFreq+0x156>
    }
    case RCC_CFGR_SWS_PLL:  /* PLL used as system clock  source */
    {
      /* PLL_VCO = (HSE_VALUE or HSI_VALUE / PLLM) * PLLN
      SYSCLK = PLL_VCO / PLLP */
      pllm = RCC->PLLCFGR & RCC_PLLCFGR_PLLM;
 8002206:	4948      	ldr	r1, [pc, #288]	; (8002328 <HAL_RCC_GetSysClockFreq+0x160>)
 8002208:	6849      	ldr	r1, [r1, #4]
 800220a:	f001 013f 	and.w	r1, r1, #63	; 0x3f
 800220e:	6079      	str	r1, [r7, #4]
      if(__HAL_RCC_GET_PLL_OSCSOURCE() != RCC_PLLSOURCE_HSI)
 8002210:	4945      	ldr	r1, [pc, #276]	; (8002328 <HAL_RCC_GetSysClockFreq+0x160>)
 8002212:	6849      	ldr	r1, [r1, #4]
 8002214:	f401 0180 	and.w	r1, r1, #4194304	; 0x400000
 8002218:	2900      	cmp	r1, #0
 800221a:	d024      	beq.n	8002266 <HAL_RCC_GetSysClockFreq+0x9e>
      {
        /* HSE used as PLL clock source */
        pllvco = (uint32_t) ((((uint64_t) HSE_VALUE * ((uint64_t) ((RCC->PLLCFGR & RCC_PLLCFGR_PLLN) >> RCC_PLLCFGR_PLLN_Pos)))) / (uint64_t)pllm);
 800221c:	4942      	ldr	r1, [pc, #264]	; (8002328 <HAL_RCC_GetSysClockFreq+0x160>)
 800221e:	6849      	ldr	r1, [r1, #4]
 8002220:	0989      	lsrs	r1, r1, #6
 8002222:	4608      	mov	r0, r1
 8002224:	f04f 0100 	mov.w	r1, #0
 8002228:	f240 14ff 	movw	r4, #511	; 0x1ff
 800222c:	f04f 0500 	mov.w	r5, #0
 8002230:	ea00 0204 	and.w	r2, r0, r4
 8002234:	ea01 0305 	and.w	r3, r1, r5
 8002238:	493d      	ldr	r1, [pc, #244]	; (8002330 <HAL_RCC_GetSysClockFreq+0x168>)
 800223a:	fb01 f003 	mul.w	r0, r1, r3
 800223e:	2100      	movs	r1, #0
 8002240:	fb01 f102 	mul.w	r1, r1, r2
 8002244:	1844      	adds	r4, r0, r1
 8002246:	493a      	ldr	r1, [pc, #232]	; (8002330 <HAL_RCC_GetSysClockFreq+0x168>)
 8002248:	fba2 0101 	umull	r0, r1, r2, r1
 800224c:	1863      	adds	r3, r4, r1
 800224e:	4619      	mov	r1, r3
 8002250:	687b      	ldr	r3, [r7, #4]
 8002252:	461a      	mov	r2, r3
 8002254:	f04f 0300 	mov.w	r3, #0
 8002258:	f7fd ffbc 	bl	80001d4 <__aeabi_uldivmod>
 800225c:	4602      	mov	r2, r0
 800225e:	460b      	mov	r3, r1
 8002260:	4613      	mov	r3, r2
 8002262:	60fb      	str	r3, [r7, #12]
 8002264:	e04a      	b.n	80022fc <HAL_RCC_GetSysClockFreq+0x134>
      }
      else
      {
        /* HSI used as PLL clock source */
        pllvco = (uint32_t) ((((uint64_t) HSI_VALUE * ((uint64_t) ((RCC->PLLCFGR & RCC_PLLCFGR_PLLN) >> RCC_PLLCFGR_PLLN_Pos)))) / (uint64_t)pllm);
 8002266:	4b30      	ldr	r3, [pc, #192]	; (8002328 <HAL_RCC_GetSysClockFreq+0x160>)
 8002268:	685b      	ldr	r3, [r3, #4]
 800226a:	099b      	lsrs	r3, r3, #6
 800226c:	461a      	mov	r2, r3
 800226e:	f04f 0300 	mov.w	r3, #0
 8002272:	f240 10ff 	movw	r0, #511	; 0x1ff
 8002276:	f04f 0100 	mov.w	r1, #0
 800227a:	ea02 0400 	and.w	r4, r2, r0
 800227e:	ea03 0501 	and.w	r5, r3, r1
 8002282:	4620      	mov	r0, r4
 8002284:	4629      	mov	r1, r5
 8002286:	f04f 0200 	mov.w	r2, #0
 800228a:	f04f 0300 	mov.w	r3, #0
 800228e:	014b      	lsls	r3, r1, #5
 8002290:	ea43 63d0 	orr.w	r3, r3, r0, lsr #27
 8002294:	0142      	lsls	r2, r0, #5
 8002296:	4610      	mov	r0, r2
 8002298:	4619      	mov	r1, r3
 800229a:	1b00      	subs	r0, r0, r4
 800229c:	eb61 0105 	sbc.w	r1, r1, r5
 80022a0:	f04f 0200 	mov.w	r2, #0
 80022a4:	f04f 0300 	mov.w	r3, #0
 80022a8:	018b      	lsls	r3, r1, #6
 80022aa:	ea43 6390 	orr.w	r3, r3, r0, lsr #26
 80022ae:	0182      	lsls	r2, r0, #6
 80022b0:	1a12      	subs	r2, r2, r0
 80022b2:	eb63 0301 	sbc.w	r3, r3, r1
 80022b6:	f04f 0000 	mov.w	r0, #0
 80022ba:	f04f 0100 	mov.w	r1, #0
 80022be:	00d9      	lsls	r1, r3, #3
 80022c0:	ea41 7152 	orr.w	r1, r1, r2, lsr #29
 80022c4:	00d0      	lsls	r0, r2, #3
 80022c6:	4602      	mov	r2, r0
 80022c8:	460b      	mov	r3, r1
 80022ca:	1912      	adds	r2, r2, r4
 80022cc:	eb45 0303 	adc.w	r3, r5, r3
 80022d0:	f04f 0000 	mov.w	r0, #0
 80022d4:	f04f 0100 	mov.w	r1, #0
 80022d8:	0299      	lsls	r1, r3, #10
 80022da:	ea41 5192 	orr.w	r1, r1, r2, lsr #22
 80022de:	0290      	lsls	r0, r2, #10
 80022e0:	4602      	mov	r2, r0
 80022e2:	460b      	mov	r3, r1
 80022e4:	4610      	mov	r0, r2
 80022e6:	4619      	mov	r1, r3
 80022e8:	687b      	ldr	r3, [r7, #4]
 80022ea:	461a      	mov	r2, r3
 80022ec:	f04f 0300 	mov.w	r3, #0
 80022f0:	f7fd ff70 	bl	80001d4 <__aeabi_uldivmod>
 80022f4:	4602      	mov	r2, r0
 80022f6:	460b      	mov	r3, r1
 80022f8:	4613      	mov	r3, r2
 80022fa:	60fb      	str	r3, [r7, #12]
      }
      pllp = ((((RCC->PLLCFGR & RCC_PLLCFGR_PLLP) >> RCC_PLLCFGR_PLLP_Pos) + 1U) *2U);
 80022fc:	4b0a      	ldr	r3, [pc, #40]	; (8002328 <HAL_RCC_GetSysClockFreq+0x160>)
 80022fe:	685b      	ldr	r3, [r3, #4]
 8002300:	0c1b      	lsrs	r3, r3, #16
 8002302:	f003 0303 	and.w	r3, r3, #3
 8002306:	3301      	adds	r3, #1
 8002308:	005b      	lsls	r3, r3, #1
 800230a:	603b      	str	r3, [r7, #0]

      sysclockfreq = pllvco/pllp;
 800230c:	68fa      	ldr	r2, [r7, #12]
 800230e:	683b      	ldr	r3, [r7, #0]
 8002310:	fbb2 f3f3 	udiv	r3, r2, r3
 8002314:	60bb      	str	r3, [r7, #8]
      break;
 8002316:	e002      	b.n	800231e <HAL_RCC_GetSysClockFreq+0x156>
    }
    default:
    {
      sysclockfreq = HSI_VALUE;
 8002318:	4b04      	ldr	r3, [pc, #16]	; (800232c <HAL_RCC_GetSysClockFreq+0x164>)
 800231a:	60bb      	str	r3, [r7, #8]
      break;
 800231c:	bf00      	nop
    }
  }
  return sysclockfreq;
 800231e:	68bb      	ldr	r3, [r7, #8]
}
 8002320:	4618      	mov	r0, r3
 8002322:	3710      	adds	r7, #16
 8002324:	46bd      	mov	sp, r7
 8002326:	bdb0      	pop	{r4, r5, r7, pc}
 8002328:	40023800 	.word	0x40023800
 800232c:	00f42400 	.word	0x00f42400
 8002330:	017d7840 	.word	0x017d7840

08002334 <HAL_RCC_GetHCLKFreq>:
  * @note   The SystemCoreClock CMSIS variable is used to store System Clock Frequency
  *         and updated within this function
  * @retval HCLK frequency
  */
uint32_t HAL_RCC_GetHCLKFreq(void)
{
 8002334:	b480      	push	{r7}
 8002336:	af00      	add	r7, sp, #0
  return SystemCoreClock;
 8002338:	4b03      	ldr	r3, [pc, #12]	; (8002348 <HAL_RCC_GetHCLKFreq+0x14>)
 800233a:	681b      	ldr	r3, [r3, #0]
}
 800233c:	4618      	mov	r0, r3
 800233e:	46bd      	mov	sp, r7
 8002340:	f85d 7b04 	ldr.w	r7, [sp], #4
 8002344:	4770      	bx	lr
 8002346:	bf00      	nop
 8002348:	20000000 	.word	0x20000000

0800234c <HAL_RCC_GetPCLK1Freq>:
  * @note   Each time PCLK1 changes, this function must be called to update the
  *         right PCLK1 value. Otherwise, any configuration based on this function will be incorrect.
  * @retval PCLK1 frequency
  */
uint32_t HAL_RCC_GetPCLK1Freq(void)
{
 800234c:	b580      	push	{r7, lr}
 800234e:	af00      	add	r7, sp, #0
  /* Get HCLK source and Compute PCLK1 frequency ---------------------------*/
  return (HAL_RCC_GetHCLKFreq() >> APBPrescTable[(RCC->CFGR & RCC_CFGR_PPRE1)>> RCC_CFGR_PPRE1_Pos]);
 8002350:	f7ff fff0 	bl	8002334 <HAL_RCC_GetHCLKFreq>
 8002354:	4602      	mov	r2, r0
 8002356:	4b05      	ldr	r3, [pc, #20]	; (800236c <HAL_RCC_GetPCLK1Freq+0x20>)
 8002358:	689b      	ldr	r3, [r3, #8]
 800235a:	0a9b      	lsrs	r3, r3, #10
 800235c:	f003 0307 	and.w	r3, r3, #7
 8002360:	4903      	ldr	r1, [pc, #12]	; (8002370 <HAL_RCC_GetPCLK1Freq+0x24>)
 8002362:	5ccb      	ldrb	r3, [r1, r3]
 8002364:	fa22 f303 	lsr.w	r3, r2, r3
}
 8002368:	4618      	mov	r0, r3
 800236a:	bd80      	pop	{r7, pc}
 800236c:	40023800 	.word	0x40023800
 8002370:	080023f4 	.word	0x080023f4

08002374 <__libc_init_array>:
 8002374:	b570      	push	{r4, r5, r6, lr}
 8002376:	4d0d      	ldr	r5, [pc, #52]	; (80023ac <__libc_init_array+0x38>)
 8002378:	4c0d      	ldr	r4, [pc, #52]	; (80023b0 <__libc_init_array+0x3c>)
 800237a:	1b64      	subs	r4, r4, r5
 800237c:	10a4      	asrs	r4, r4, #2
 800237e:	2600      	movs	r6, #0
 8002380:	42a6      	cmp	r6, r4
 8002382:	d109      	bne.n	8002398 <__libc_init_array+0x24>
 8002384:	4d0b      	ldr	r5, [pc, #44]	; (80023b4 <__libc_init_array+0x40>)
 8002386:	4c0c      	ldr	r4, [pc, #48]	; (80023b8 <__libc_init_array+0x44>)
 8002388:	f000 f820 	bl	80023cc <_init>
 800238c:	1b64      	subs	r4, r4, r5
 800238e:	10a4      	asrs	r4, r4, #2
 8002390:	2600      	movs	r6, #0
 8002392:	42a6      	cmp	r6, r4
 8002394:	d105      	bne.n	80023a2 <__libc_init_array+0x2e>
 8002396:	bd70      	pop	{r4, r5, r6, pc}
 8002398:	f855 3b04 	ldr.w	r3, [r5], #4
 800239c:	4798      	blx	r3
 800239e:	3601      	adds	r6, #1
 80023a0:	e7ee      	b.n	8002380 <__libc_init_array+0xc>
 80023a2:	f855 3b04 	ldr.w	r3, [r5], #4
 80023a6:	4798      	blx	r3
 80023a8:	3601      	adds	r6, #1
 80023aa:	e7f2      	b.n	8002392 <__libc_init_array+0x1e>
 80023ac:	08002404 	.word	0x08002404
 80023b0:	08002404 	.word	0x08002404
 80023b4:	08002404 	.word	0x08002404
 80023b8:	08002408 	.word	0x08002408

080023bc <memset>:
 80023bc:	4402      	add	r2, r0
 80023be:	4603      	mov	r3, r0
 80023c0:	4293      	cmp	r3, r2
 80023c2:	d100      	bne.n	80023c6 <memset+0xa>
 80023c4:	4770      	bx	lr
 80023c6:	f803 1b01 	strb.w	r1, [r3], #1
 80023ca:	e7f9      	b.n	80023c0 <memset+0x4>

080023cc <_init>:
 80023cc:	b5f8      	push	{r3, r4, r5, r6, r7, lr}
 80023ce:	bf00      	nop
 80023d0:	bcf8      	pop	{r3, r4, r5, r6, r7}
 80023d2:	bc08      	pop	{r3}
 80023d4:	469e      	mov	lr, r3
 80023d6:	4770      	bx	lr

080023d8 <_fini>:
 80023d8:	b5f8      	push	{r3, r4, r5, r6, r7, lr}
 80023da:	bf00      	nop
 80023dc:	bcf8      	pop	{r3, r4, r5, r6, r7}
 80023de:	bc08      	pop	{r3}
 80023e0:	469e      	mov	lr, r3
 80023e2:	4770      	bx	lr
